(dp1
V\u8000
S'abcdefg'
p2
sV\u6302
S'abcdegf'
p3
sV\u6000
S'abcdfeg'
p4
sV\u6d89
S'abcdfge'
p5
sV\u8c08
S'abcdgef'
p6
sV\u4f0a
S'abcdgfe'
p7
sV\u538d
S'abcedfg'
p8
sV\u968f
S'abcedgf'
p9
sV\u8302
S'abcefdg'
p10
sV\u6297
S'abcefgd'
p11
sV\u8116
S'abcegdf'
p12
sV\u6599
S'abcegfd'
p13
sV\u8d1e
S'abcfdeg'
p14
sV\u9020
S'abcfdge'
p15
sV\u94a3
S'abcfedg'
p16
sV\u97a5
S'abcfegd'
p17
sV\u822c
S'abcfgde'
p18
sV\u4f5c
S'agbcefd'
p19
sV\u6cb3
S'abcgdef'
p20
sV\u6b32
S'abcgdfe'
p21
sV\u4fb5
S'abcgedf'
p22
sV\u6e34
S'abcgefd'
p23
sV\u7136
S'abcgfde'
p24
sV\u55b9
S'abcgfed'
p25
sV\u5438
S'abdcefg'
p26
sV\u573a
S'abdcegf'
p27
sV\u5bbd
S'abdcfeg'
p28
sV\u7a3c
S'abdcfge'
p29
sV\u7ebf
S'abdcgef'
p30
sV\u6342
S'abdcgfe'
p31
sV\u73cd
S'abdecfg'
p32
sV\u724c
S'abdecgf'
p33
sV\u76cf
S'abdefcg'
p34
sV\u79d1
S'abdefgc'
p35
sV\u7b52
S'abdegcf'
p36
sV\u7fd5
S'abdegfc'
p37
sV\u82d7
S'abdfceg'
p38
sV\u5eb8
S'abdfcge'
p39
sV\u6458
S'abdfecg'
p40
sV\u8bdd
S'abdfegc'
p41
sV\u523b
S'begdcfa'
p42
sV\u8d5e
S'abdfgec'
p43
sV\u51e1
S'abdgcef'
p44
sV\u74e3
S'abdgcfe'
p45
sV\u5362
S'abdgecf'
p46
sV\u77e5
S'abdgefc'
p47
sV\u9664
S'abdgfce'
p48
sV\u5de9
S'abdgfec'
p49
sV\u7f6a
S'abecdfg'
p50
sV\u63ed
S'abecdgf'
p51
sV\u626c
S'abecfdg'
p52
sV\u8870
S'abecfgd'
p53
sV\u6cf3
S'abecgdf'
p54
sV\u9176
S'adegfcb'
p55
sV\u95f9
S'abedcfg'
p56
sV\u9a7c
S'abedcgf'
p57
sV\u7eff
S'abedfcg'
p58
sV\u6101
S'abedfgc'
p59
sV\u8403
S'abedgcf'
p60
sV\u8705
S'abedgfc'
p61
sV\u8986
S'abefcdg'
p62
sV\u96c5
S'cefdgab'
p63
sV\u6c88
S'abefcgd'
p64
sV\u8f8a
S'abefdcg'
p65
sV\u560f
S'abefdgc'
p66
sV\u776c
S'dbfcage'
p67
sV\u9890
S'abefgdc'
p68
sV\u5f15
S'abegcdf'
p69
sV\u5e94
S'abegcfd'
p70
sV\u906e
S'dbfcega'
p71
sV\u53a2
S'abegdfc'
p72
sV\u9047
S'eadfcbg'
p73
sV\u5d29
S'abegfdc'
p74
sV\u5faa
S'abfcdeg'
p75
sV\u82ac
S'abfcdge'
p76
sV\u662f
S'abfcedg'
p77
sV\u68b0
S'abfcegd'
p78
sV\u8bb2
S'abfcgde'
p79
sV\u5237
S'abfcged'
p80
sV\u51b6
S'abfdceg'
p81
sV\u9539
S'abfdcge'
p82
sV\u54b8
S'abfdecg'
p83
sV\u983b
S'abfdegc'
p84
sV\u6d1e
S'abfdgce'
p85
sV\u9e3f
S'abfdgec'
p86
sV\u5fc5
S'dfbaceg'
p87
sV\u80c0
S'abfecdg'
p88
sV\u6a47
S'abfecgd'
p89
sV\u89c6
S'abfedcg'
p90
sV\u4fca
S'abfedgc'
p91
sV\u62b1
S'bfceagd'
p92
sV\u5951
S'abfegcd'
p93
sV\u78d0
S'abfegdc'
p94
sV\u5bd2
S'abfgcde'
p95
sV\u5f55
S'abfgced'
p96
sV\u5178
S'abfgdce'
p97
sV\u6559
S'abfgdec'
p98
sV\u67da
S'abfgecd'
p99
sV\u4e5f
S'abfgedc'
p100
sV\u9765
S'abgcdfe'
p101
sV\u5a67
S'abgcedf'
p102
sV\u79e6
S'abgcefd'
p103
sV\u62ec
S'abgcfde'
p104
sV\u666f
S'abgcfed'
p105
sV\u6ef4
S'abgdecf'
p106
sV\u51f6
S'abgdefc'
p107
sV\u987b
S'abgdfce'
p108
sV\u57fa
S'abgdfec'
p109
sV\u5e7f
S'abgecdf'
p110
sV\u5dfe
S'abgecfd'
p111
sV\u8081
S'abgedcf'
p112
sV\u50e7
S'efadcbg'
p113
sV\u6c89
S'abgefcd'
p114
sV\u918b
S'abgefdc'
p115
sV\u6e0a
S'agfbedc'
p116
sV\u540e
S'abgfced'
p117
sV\u9891
S'abgfdce'
p118
sV\u9910
S'abgfdec'
p119
sV\u8682
S'abgfecd'
p120
sV\u5e95
S'abgfedc'
p121
sV\u7f14
S'acbdefg'
p122
sV\u7ed8
S'eadgcfb'
p123
sV\u8499
S'acbdfeg'
p124
sV\u6518
S'acbdfge'
p125
sV\u552e
S'cdfbega'
p126
sV\u8f9f
S'acbdgfe'
p127
sV\u6c1e
S'acbedfg'
p128
sV\u5724
S'acbedgf'
p129
sV\u5826
S'acbefdg'
p130
sV\u5ca9
S'acbefgd'
p131
sV\u82ad
S'acbegdf'
p132
sV\u67af
S'acbegfd'
p133
sV\u60dc
S'acbfdeg'
p134
sV\u6930
S'acbfdge'
p135
sV\u8db3
S'acbfedg'
p136
sV\u8a32
S'acbfegd'
p137
sV\u4f34
S'acbfgde'
p138
sV\u9036
S'acbfged'
p139
sV\u732e
S'dcbefga'
p140
sV\u59bb
S'acbgdef'
p141
sV\u7b3c
S'acbgdfe'
p142
sV\u4e34
S'acbgedf'
p143
sV\u80c1
S'acbgefd'
p144
sV\u6cc9
S'acbgfed'
p145
sV\u6e4a
S'acdbefg'
p146
sV\u7ed5
S'acdbfeg'
p147
sV\u64d9
S'acdbfge'
p148
sV\u69db
S'acdbgef'
p149
sV\u665a
S'acdbgfe'
p150
sV\u4fdf
S'bcfdgea'
p151
sV\u6c5e
S'acdebgf'
p152
sV\u90e1
S'acdefbg'
p153
sV\u6c11
S'dbfgaec'
p154
sV\u55e3
S'acdegbf'
p155
sV\u7262
S'acdegfb'
p156
sV\u5764
S'acdfbeg'
p157
sV\u9897
S'dgfbeac'
p158
sV\u62ed
S'acdfebg'
p159
sV\u67ef
S'acdfegb'
p160
sV\u5a3c
S'acdfgbe'
p161
sV\u68f1
S'acdfgeb'
p162
sV\u9769
S'bfaecdg'
p163
sV\u8df3
S'bdaefgc'
p164
sV\u8f74
S'acdgebf'
p165
sV\u53f7
S'acdgefb'
p166
sV\u5076
S'acdgfbe'
p167
sV\u79fb
S'acdgfeb'
p168
sV\u8d3e
S'cdfegab'
p169
sV\u7afd
S'acebdgf'
p170
sV\u8001
S'bdcgfae'
p171
sV\u8180
S'acebfgd'
p172
sV\u6503
S'acebgdf'
p173
sV\u8282
S'acebgfd'
p174
sV\u6784
S'acedbfg'
p175
sV\u6886
S'acedbgf'
p176
sV\u6d88
S'acedfbg'
p177
sV\u510b
S'acedfgb'
p178
sV\u520d
S'acedgbf'
p179
sV\u538c
S'acedgfb'
p180
sV\u548e
S'acefbdg'
p181
sV\u7811
S'acefbgd'
p182
sV\u8019
S'acefdbg'
p183
sV\u5a92
S'acefdgb'
p184
sV\u5e15
S'acefgbd'
p185
sV\u7f94
S'acefgdb'
p186
sV\u8096
S'acegbdf'
p187
sV\u4fee
S'bfaedgc'
p188
sV\u4f1f
S'acegdbf'
p189
sV\u51a0
S'acegdfb'
p190
sV\u9523
S'acegfbd'
p191
sV\u52a2
S'acegfdb'
p192
sV\u8e1d
S'acfbdeg'
p193
sV\u7eaa
S'acfbdge'
p194
sV\u672f
S'acfbedg'
p195
sV\u64ae
S'acfbegd'
p196
sV\u5439
S'acfbged'
p197
sV\u7a3d
S'acfdbeg'
p198
sV\u7cbe
S'acfdebg'
p199
sV\u81c0
S'acfdgbe'
p200
sV\u6b47
S'acfdgeb'
p201
sV\u6c49
S'acfebdg'
p202
sV\u53cd
S'acfebgd'
p203
sV\u514b
S'acfedbg'
p204
sV\u4eca
S'acfedgb'
p205
sV\u524d
S'acfegbd'
p206
sV\u53cc
S'acfegdb'
p207
sV\u574f
S'acfgbde'
p208
sV\u524c
S'acfgbed'
p209
sV\u5851
S'acfgdbe'
p210
sV\u59d0
S'acfgdeb'
p211
sV\u5e55
S'acfgedb'
p212
sV\u7fd4
S'acgbdef'
p213
sV\u80d6
S'acgbdfe'
p214
sV\u8bdc
S'acgbedf'
p215
sV\u8cde
S'acgbefd'
p216
sV\u51e0
S'acgbfde'
p217
sV\u78e6
S'acgdbef'
p218
sV\u5de8
S'acgdbfe'
p219
sV\u7eea
S'acgdebf'
p220
sV\u626d
S'acgdefb'
p221
sV\u676f
S'acgdfbe'
p222
sV\u5377
S'acgebdf'
p223
sV\u99a8
S'acgebfd'
p224
sV\u95f8
S'acgedbf'
p225
sV\u56fa
S'acgedfb'
p226
sV\u5bfc
S'acgefbd'
p227
sV\u9f7f
S'acgefdb'
p228
sV\u8102
S'acgfbde'
p229
sV\u8f89
S'acgfbed'
p230
sV\u4e08
S'acgfdbe'
p231
sV\u518d
S'acgfdeb'
p232
sV\u4f83
S'acgfebd'
p233
sV\u948f
S'acgfedb'
p234
sV\u5e93
S'adbcefg'
p235
sV\u5802
S'eafcgdb'
p236
sV\u5c14
S'adbcfeg'
p237
sV\u6316
S'adbcfge'
p238
sV\u851a
S'adbcgef'
p239
sV\u6c9f
S'adbcgfe'
p240
sV\u4f1e
S'adbecfg'
p241
sV\u56a3
S'adbecgf'
p242
sV\u78a7
S'adbefcg'
p243
sV\u7b26
S'adbefgc'
p244
sV\u62ab
S'adbegcf'
p245
sV\u7206
S'eafdbgc'
p246
sV\u8eb2
S'adbfceg'
p247
sV\u6c34
S'adbfcge'
p248
sV\u753a
S'adbfecg'
p249
sV\u79bd
S'adbfegc'
p250
sV\u6240
S'adbfgce'
p251
sV\u65c5
S'adbfgec'
p252
sV\u6444
S'adbgcef'
p253
sV\u8fc9
S'adbgcfe'
p254
sV\u4e48
S'adbgecf'
p255
sV\u52cb
S'adbgefc'
p256
sV\u6d4a
S'adbgfce'
p257
sV\u91cd
S'adbgfec'
p258
sV\u574e
S'adcbefg'
p259
sV\u7ed3
S'adcbegf'
p260
sV\u5149
S'ecdfabg'
p261
sV\u5162
S'adcbfeg'
p262
sV\u5b66
S'adcbfge'
p263
sV\u4e3d
S'dbgcfea'
p264
sV\u81ed
S'adcbgfe'
p265
sV\u606c
S'adcebfg'
p266
sV\u8bf1
S'adcebgf'
p267
sV\u4ef3
S'adcefbg'
p268
sV\u5012
S'adcefgb'
p269
sV\u8df5
S'adcegbf'
p270
sV\u70f7
S'adcegfb'
p271
sV\u57f9
S'adcfbeg'
p272
sV\u957a
S'adcfbge'
p273
sV\u6301
S'adcfebg'
p274
sV\u6280
S'adcfegb'
p275
sV\u6807
S'adcfgbe'
p276
sV\u6b86
S'adcfgeb'
p277
sV\u4f09
S'adcgbef'
p278
sV\u4e88
S'adcgbfe'
p279
sV\u8d8a
S'adcgebf'
p280
sV\u540f
S'acfdbge'
p281
sV\u778e
S'adcgfbe'
p282
sV\u7b11
S'adcgfeb'
p283
sV\u5992
S'adebcfg'
p284
sV\u8017
S'adebfcg'
p285
sV\u6396
S'adebfgc'
p286
sV\u6c1f
S'adebgcf'
p287
sV\u8f9e
S'adebgfc'
p288
sV\u52a0
S'adecbfg'
p289
sV\u9525
S'adecbgf'
p290
sV\u7f29
S'adecfbg'
p291
sV\u609d
S'adecfgb'
p292
sV\u60ac
S'adecgbf'
p293
sV\u8d35
S'adecgfb'
p294
sV\u9739
S'adefbgc'
p295
sV\u7a3b
S'adefcbg'
p296
sV\u78bc
S'adefgbc'
p297
sV\u5c3f
S'adefgcb'
p298
sV\u6341
S'adegbcf'
p299
sV\u6643
S'adegbfc'
p300
sV\u81c2
S'adegcbf'
p301
sV\u6545
S'adegcfb'
p302
sV\u8bc6
S'adegfbc'
p303
sV\u7709
S'eacfdbg'
p304
sV\u5176
S'abecgfd'
p305
sV\u514d
S'adfbceg'
p306
sV\u4f69
S'cgbfaed'
p307
sV\u57ce
S'adfbecg'
p308
sV\u7b51
S'adfbegc'
p309
sV\u75f9
S'adfbgce'
p310
sV\u79d2
S'adfbgec'
p311
sV\u63d6
S'adfcbeg'
p312
sV\u6a5b
S'adfcbge'
p313
sV\u6c5f
S'adfcebg'
p314
sV\u8fde
S'adfcegb'
p315
sV\u5361
S'adfcgbe'
p316
sV\u72e0
S'adfcgeb'
p317
sV\u5565
S'adfebcg'
p318
sV\u94e4
S'adfebgc'
p319
sV\u5f69
S'adfecbg'
p320
sV\u626b
S'adfecgb'
p321
sV\u846f
S'adfegbc'
p322
sV\u8d75
S'adfegcb'
p323
sV\u5eff
S'adfgbce'
p324
sV\u5077
S'adfgbec'
p325
sV\u53f6
S'adfgcbe'
p326
sV\u7779
S'adfgceb'
p327
sV\u76f8
S'adfgebc'
p328
sV\u9a7b
S'adfgecb'
p329
sV\u597d
S'adgbcef'
p330
sV\u5bab
S'eagcfbd'
p331
sV\u6002
S'adgbecf'
p332
sV\u5080
S'cdgebfa'
p333
sV\u4e89
S'adgbfce'
p334
sV\u738b
S'adgbfec'
p335
sV\u8c0a
S'adgcbef'
p336
sV\u5403
S'cdgefab'
p337
sV\u758f
S'adgcebf'
p338
sV\u560e
S'adgcefb'
p339
sV\u9a91
S'adgcfbe'
p340
sV\u5d14
S'adgcfeb'
p341
sV\u6216
S'adgebcf'
p342
sV\u8718
S'adgecbf'
p343
sV\u8d9f
S'adgecfb'
p344
sV\u8e1e
S'adgefbc'
p345
sV\u52a1
S'adgefcb'
p346
sV\u5320
S'afedbcg'
p347
sV\u9022
S'adgfbec'
p348
sV\u94a5
S'adgfcbe'
p349
sV\u5524
S'adgfceb'
p350
sV\u79a7
S'adgfebc'
p351
sV\u83ab
S'adgfecb'
p352
sV\u9986
S'cdgfbae'
p353
sV\u77b3
S'eagdcbf'
p354
sV\u65af
S'aebcdgf'
p355
sV\u4fdc
S'aebcfdg'
p356
sV\u6fb3
S'aebcfgd'
p357
sV\u8bf8
S'egcdfba'
p358
sV\u8d34
S'aebcgdf'
p359
sV\u51b7
S'aebcgfd'
p360
sV\u5236
S'aebdcfg'
p361
sV\u9738
S'aebdcgf'
p362
sV\u793c
S'aebdfcg'
p363
sV\u7f8a
S'cdgfbea'
p364
sV\u64c5
S'aebdgcf'
p365
sV\u53cb
S'aebfcdg'
p366
sV\u714c
S'aebfcgd'
p367
sV\u55cf
S'aebfdcg'
p368
sV\u5b50
S'aebfgcd'
p369
sV\u7852
S'aebfgdc'
p370
sV\u7cd5
S'aebgcdf'
p371
sV\u66d9
S'acfbgde'
p372
sV\u6bdb
S'aebgdcf'
p373
sV\u53bb
S'bfcgade'
p374
sV\u8ddf
S'aebgfcd'
p375
sV\u5360
S'aebgfdc'
p376
sV\u77e3
S'aecbdfg'
p377
sV\u54e5
S'aecbdgf'
p378
sV\u79e7
S'aecbfdg'
p379
sV\u7ee9
S'aecbfgd'
p380
sV\u60ed
S'aecbgdf'
p381
sV\u666e
S'aecbgfd'
p382
sV\u8d74
S'aecdbfg'
p383
sV\u7f15
S'aecdbgf'
p384
sV\u5bfb
S'aecdfbg'
p385
sV\u997c
S'aecdfgb'
p386
sV\u6380
S'aecdgbf'
p387
sV\u8703
S'aecdgfb'
p388
sV\u6405
S'aecfbdg'
p389
sV\u8584
S'aecfbgd'
p390
sV\u4e09
S'aecfdbg'
p391
sV\u8f88
S'aecfdgb'
p392
sV\u500d
S'aecfgbd'
p393
sV\u518c
S'aecfgdb'
p394
sV\u568e
S'aecgbdf'
p395
sV\u7236
S'cgedafb'
p396
sV\u5f13
S'bcfedag'
p397
sV\u5892
S'aecgdbf'
p398
sV\u6296
S'aecgdfb'
p399
sV\u6619
S'aecgfbd'
p400
sV\u699c
S'aecgfdb'
p401
sV\u8d1f
S'aedbcfg'
p402
sV\u5723
S'aedbcgf'
p403
sV\u90a2
S'aedbfcg'
p404
sV\u7425
S'aedbfgc'
p405
sV\u75a4
S'aedbgcf'
p406
sV\u5927
S'aedbgfc'
p407
sV\u9e7f
S'edcgabf'
p408
sV\u5fa8
S'aedcbfg'
p409
sV\u832b
S'aedcbgf'
p410
sV\u652f
S'aedcfbg'
p411
sV\u6a31
S'aedcfgb'
p412
sV\u8bb0
S'aedcgbf'
p413
sV\u6f33
S'aedcgfb'
p414
sV\u8db4
S'aedfbcg'
p415
sV\u72b6
S'aedfbgc'
p416
sV\u6241
S'aedfcbg'
p417
sV\u6743
S'aedfcgb'
p418
sV\u6445
S'aedfgbc'
p419
sV\u65c4
S'aedfgcb'
p420
sV\u80a0
S'ceadgbf'
p421
sV\u4e49
S'aedgbfc'
p422
sV\u8fc8
S'aedgcbf'
p423
sV\u74f6
S'aedgfbc'
p424
sV\u904d
S'aedgfcb'
p425
sV\u91cc
S'aefbcdg'
p426
sV\u754f
S'aefbcgd'
p427
sV\u5f53
S'aefbdcg'
p428
sV\u5c55
S'aefbdgc'
p429
sV\u62d6
S'aefbgdc'
p430
sV\u6ede
S'aefcbdg'
p431
sV\u7261
S'aefcbgd'
p432
sV\u73e0
S'aefcdbg'
p433
sV\u7763
S'aefcdgb'
p434
sV\u7967
S'aefcgbd'
p435
sV\u836b
S'aefcgdb'
p436
sV\u5cea
S'aefdbcg'
p437
sV\u606d
S'aefdbgc'
p438
sV\u5c81
S'ecfdgba'
p439
sV\u86ee
S'aefdcbg'
p440
sV\u8bf0
S'aefdcgb'
p441
sV\u4f73
S'aefdgbc'
p442
sV\u5177
S'aefdgcb'
p443
sV\u66fe
S'ebfdcag'
p444
sV\u94fa
S'aefgbcd'
p445
sV\u987d
S'aefgbdc'
p446
sV\u9efe
S'aefgcbd'
p447
sV\u8083
S'aefgcdb'
p448
sV\u8702
S'aefgdbc'
p449
sV\u6808
S'aefgdcb'
p450
sV\u548b
S'aegbcdf'
p451
sV\u978d
S'aegbcfd'
p452
sV\u560c
S'aegbdcf'
p453
sV\u62ac
S'aegbdfc'
p454
sV\u5893
S'aegbfcd'
p455
sV\u6697
S'aegbfdc'
p456
sV\u631a
S'aegcbdf'
p457
sV\u4f9d
S'aegcbfd'
p458
sV\u4e1c
S'aegcdbf'
p459
sV\u9004
S'dcaegbf'
p460
sV\u5420
S'aegcdfb'
p461
sV\u90a3
S'aegcfbd'
p462
sV\u5224
S'aegcfdb'
p463
sV\u5ea7
S'aegdbcf'
p464
sV\u5d26
S'aegdbfc'
p465
sV\u662c
S'aegdcbf'
p466
sV\u82af
S'aegdcfb'
p467
sV\u68b3
S'aegdfcb'
p468
sV\u6bb5
S'aegfbcd'
p469
sV\u56b7
S'aegfbdc'
p470
sV\u9038
S'aegfcbd'
p471
sV\u533a
S'aegfcdb'
p472
sV\u7fbd
S'aegfdbc'
p473
sV\u793e
S'aegfdcb'
p474
sV\u65c1
S'afbcdeg'
p475
sV\u80c3
S'afbcdge'
p476
sV\u6742
S'afbcedg'
p477
sV\u7237
S'afbcegd'
p478
sV\u4ec7
S'afbcgde'
p479
sV\u89c9
S'afbcged'
p480
sV\u6848
S'afbdceg'
p481
sV\u964c
S'afbdcge'
p482
sV\u5f52
S'afbdecg'
p483
sV\u6556
S'afbdegc'
p484
sV\u6cdb
S'afbdgce'
p485
sV\u835a
S'afbdgec'
p486
sV\u8fdd
S'afbecdg'
p487
sV\u695e
S'afbecgd'
p488
sV\u55e1
S'afbedcg'
p489
sV\u9762
S'afbedgc'
p490
sV\u53e5
S'afbegcd'
p491
sV\u7ee7
S'afbegdc'
p492
sV\u6e10
S'dcafgbe'
p493
sV\u79e9
S'afbgced'
p494
sV\u82ef
S'afbgdec'
p495
sV\u6df1
S'afbgecd'
p496
sV\u88f3
S'afbgedc'
p497
sV\u6d12
S'dcagbef'
p498
sV\u8bf5
S'afcbdeg'
p499
sV\u96f7
S'afcbdge'
p500
sV\u51f9
S'afcbegd'
p501
sV\u7078
S'afcbgde'
p502
sV\u7cfb
S'afcbged'
p503
sV\u5ffd
S'afcdbeg'
p504
sV\u5e7c
S'afcdbge'
p505
sV\u7aff
S'afcdebg'
p506
sV\u8003
S'afcdegb'
p507
sV\u8305
S'afcdgbe'
p508
sV\u6284
S'afcdgeb'
p509
sV\u4e07
S'afcebdg'
p510
sV\u6b8a
S'afcedbg'
p511
sV\u970d
S'afcedgb'
p512
sV\u775b
S'egcadfb'
p513
sV\u5c90
S'afcegbd'
p514
sV\u5f92
S'afcegdb'
p515
sV\u8098
S'afcgbde'
p516
sV\u8c1b
S'afcgbed'
p517
sV\u6e9c
S'afcgdbe'
p518
sV\u6a1f
S'afcgdeb'
p519
sV\u82f1
S'bfdcgea'
p520
sV\u5929
S'afdbceg'
p521
sV\u58a8
S'afdbcge'
p522
sV\u5baa
S'afdbecg'
p523
sV\u97f3
S'ebagcfd'
p524
sV\u8d31
S'afdbgec'
p525
sV\u70b8
S'afdcbge'
p526
sV\u7a3f
S'afdcebg'
p527
sV\u79be
S'afdcegb'
p528
sV\u6043
S'afdcgbe'
p529
sV\u6345
S'afdcgeb'
p530
sV\u62c4
S'afdebcg'
p531
sV\u4e47
S'afdebgc'
p532
sV\u6dc6
S'afdecbg'
p533
sV\u9a76
S'afdecgb'
p534
sV\u96cc
S'ecdfgab'
p535
sV\u91ce
S'afdegcb'
p536
sV\u5b55
S'afdgbce'
p537
sV\u864f
S'cebdafg'
p538
sV\u9f84
S'dgbfcae'
p539
sV\u6c5b
S'afdgcbe'
p540
sV\u5561
S'afdgceb'
p541
sV\u9063
S'afdgebc'
p542
sV\u77e2
S'afdgecb'
p543
sV\u52e4
S'afebcdg'
p544
sV\u5de6
S'afebcgd'
p545
sV\u70fd
S'bfgdcae'
p546
sV\u846b
S'afebdgc'
p547
sV\u676d
S'afebgcd'
p548
sV\u626f
S'afebgdc'
p549
sV\u6cf0
S'afecbdg'
p550
sV\u9677
S'afecbgd'
p551
sV\u5179
S'afecdbg'
p552
sV\u7f55
S'afecdgb'
p553
sV\u7c7b
S'afecgbd'
p554
sV\u73fa
S'afecgdb'
p555
sV\u7efc
S'acfgebd'
p556
sV\u7a7f
S'afedbgc'
p557
sV\u4ed4
S'cebdfga'
p558
sV\u6500
S'afedcgb'
p559
sV\u6602
S'afedgbc'
p560
sV\u8908
S'afedgcb'
p561
sV\u6a0a
S'afegbcd'
p562
sV\u842c
S'afegbdc'
p563
sV\u5c91
S'afegcbd'
p564
sV\u7b14
S'afegcdb'
p565
sV\u6797
S'afegdbc'
p566
sV\u8099
S'afegdcb'
p567
sV\u6d9b
S'afgbcde'
p568
sV\u621a
S'afgbced'
p569
sV\u5520
S'afgbdce'
p570
sV\u7766
S'edbfgca'
p571
sV\u58a9
S'afgbdec'
p572
sV\u65ab
S'afgbecd'
p573
sV\u672c
S'afgbedc'
p574
sV\u8d30
S'afgcbed'
p575
sV\u4e32
S'afgcdbe'
p576
sV\u7436
S'afgcdeb'
p577
sV\u70b9
S'afgcebd'
p578
sV\u523a
S'afgcedb'
p579
sV\u7ebd
S'afgdbce'
p580
sV\u5bbf
S'afgdbec'
p581
sV\u81c3
S'afgdcbe'
p582
sV\u62c5
S'afgdceb'
p583
sV\u8fc7
S'afgdebc'
p584
sV\u8c46
S'afgdecb'
p585
sV\u68c9
S'afgebcd'
p586
sV\u56cd
S'adgebfc'
p587
sV\u504e
S'afgecdb'
p588
sV\u59d3
S'afgedbc'
p589
sV\u7b54
S'afgedcb'
p590
sV\u8e0a
S'agbcdef'
p591
sV\u8158
S'agbcdfe'
p592
sV\u4e8e
S'ebcdfag'
p593
sV\u4edd
S'agbcedf'
p594
sV\u6f5c
S'abcfged'
p595
sV\u9662
S'agbcfde'
p596
sV\u5364
S'agbcfed'
p597
sV\u5fe7
S'agbdcef'
p598
sV\u6390
S'ebcdgaf'
p599
sV\u7968
S'agbdcfe'
p600
sV\u8d70
S'agbdecf'
p601
sV\u8e72
S'agbdefc'
p602
sV\u9178
S'agbdfce'
p603
sV\u727a
S'agbdfec'
p604
sV\u5f7c
S'agbecdf'
p605
sV\u5bff
S'agbecfd'
p606
sV\u987e
S'agbedcf'
p607
sV\u6682
S'agbedfc'
p608
sV\u8205
S'agbefcd'
p609
sV\u6c86
S'agbefdc'
p610
sV\u950b
S'agbfcde'
p611
sV\u960d
S'agbfced'
p612
sV\u530f
S'agbfdce'
p613
sV\u708e
S'agbfdec'
p614
sV\u5c11
S'agbfecd'
p615
sV\u6717
S'agbfedc'
p616
sV\u6496
S'agcbdef'
p617
sV\u6019
S'agcbdfe'
p618
sV\u6d1b
S'agcbedf'
p619
sV\u629a
S'agcbefd'
p620
sV\u4e1d
S'agcbfde'
p621
sV\u8f9c
S'agcbfed'
p622
sV\u5421
S'agcdbef'
p623
sV\u5f27
S'agcdbfe'
p624
sV\u59a8
S'agcdebf'
p625
sV\u662d
S'agcdefb'
p626
sV\u632f
S'agcdfbe'
p627
sV\u80ae
S'agcdfeb'
p628
sV\u8c31
S'agcebdf'
p629
sV\u4eb2
S'agcebfd'
p630
sV\u53ca
S'ecdfbag'
p631
sV\u8c8c
S'efbacgd'
p632
sV\u5e3d
S'agcedbf'
p633
sV\u78be
S'agcedfb'
p634
sV\u6441
S'agcefbd'
p635
sV\u89c8
S'agcefdb'
p636
sV\u554b
S'agcfbde'
p637
sV\u6aca
S'agcfbed'
p638
sV\u964d
S'agcfdbe'
p639
sV\u534f
S'agcfebd'
p640
sV\u90ce
S'agcfedb'
p641
sV\u5c51
S'agdbcef'
p642
sV\u90cf
S'agdbcfe'
p643
sV\u8757
S'agdbecf'
p644
sV\u84d6
S'agdbefc'
p645
sV\u6059
S'agdbfce'
p646
sV\u8d5b
S'agdbfec'
p647
sV\u4e5d
S'agdcbef'
p648
sV\u8fdc
S'agdcbfe'
p649
sV\u6fd1
S'cgdebfa'
p650
sV\u56e2
S'agdcefb'
p651
sV\u53e4
S'agdcfbe'
p652
sV\u5f67
S'agdcfeb'
p653
sV\u5ce6
S'agdebcf'
p654
sV\u59e8
S'agdebfc'
p655
sV\u836f
S'agdecbf'
p656
sV\u4ef2
S'agdecfb'
p657
sV\u8bf4
S'agdefbc'
p658
sV\u5777
S'agdefcb'
p659
sV\u94f6
S'agdfbce'
p660
sV\u51f8
S'agdfbec'
p661
sV\u52fa
S'agdfcbe'
p662
sV\u5e7d
S'agdfceb'
p663
sV\u7ffc
S'agdfebc'
p664
sV\u6781
S'agdfecb'
p665
sV\u6004
S'agebcdf'
p666
sV\u6f06
S'agebcfd'
p667
sV\u968b
S'agebdcf'
p668
sV\u540c
S'agebdfc'
p669
sV\u730e
S'agebfcd'
p670
sV\u5e10
S'agebfdc'
p671
sV\u7814
S'agecbdf'
p672
sV\u8258
S'agecbfd'
p673
sV\u6218
S'agecdbf'
p674
sV\u4e9b
S'agecdfb'
p675
sV\u811a
S'agecfbd'
p676
sV\u6d9d
S'agecfdb'
p677
sV\u8c1c
S'agedbcf'
p678
sV\u60e7
S'eabgfcd'
p679
sV\u52a3
S'agedcbf'
p680
sV\u515a
S'dceabgf'
p681
sV\u5f26
S'agedfbc'
p682
sV\u7ba9
S'agedfcb'
p683
sV\u592a
S'agefbcd'
p684
sV\u65ad
S'agefbdc'
p685
sV\u642c
S'agefcbd'
p686
sV\u80af
S'agefcdb'
p687
sV\u8fb1
S'agefdbc'
p688
sV\u4e30
S'agefdcb'
p689
sV\u80b2
S'bfedcga'
p690
sV\u53b9
S'agfbced'
p691
sV\u7238
S'agfbdce'
p692
sV\u9ebb
S'agfbdec'
p693
sV\u5c3c
S'agfbecd'
p694
sV\u4e0a
S'abgfcde'
p695
sV\u4f46
S'agfcbde'
p696
sV\u8bc9
S'agfcbed'
p697
sV\u50cf
S'agfcdbe'
p698
sV\u534e
S'agfcdeb'
p699
sV\u4e39
S'ebdcafg'
p700
sV\u5854
S'agfcedb'
p701
sV\u6756
S'agfdbce'
p702
sV\u6258
S'agfdbec'
p703
sV\u8ddd
S'agfdcbe'
p704
sV\u7891
S'agfdceb'
p705
sV\u65ed
S'agfdebc'
p706
sV\u846c
S'agfdecb'
p707
sV\u60ef
S'agfebcd'
p708
sV\u636e
S'agfebdc'
p709
sV\u4ff1
S'agfecbd'
p710
sV\u4e70
S'agfecdb'
p711
sV\u7776
S'agfedbc'
p712
sV\u53f9
S'agfedcb'
p713
sV\u9c7c
S'bacdefg'
p714
sV\u5eda
S'eagcbdf'
p715
sV\u7b7e
S'bacdegf'
p716
sV\u6084
S'bacdfeg'
p717
sV\u8c07
S'bacdfge'
p718
sV\u8f86
S'bacdgef'
p719
sV\u548c
S'bacdgfe'
p720
sV\u900f
S'bacedfg'
p721
sV\u646c
S'bacedgf'
p722
sV\u5915
S'bacefdg'
p723
sV\u6298
S'bacefgd'
p724
sV\u4e1b
S'bacegdf'
p725
sV\u8d1d
S'bacfdeg'
p726
sV\u8dc4
S'cbdfeag'
p727
sV\u7ff1
S'dcebgfa'
p728
sV\u7c27
S'bacfegd'
p729
sV\u9e70
S'dcefabg'
p730
sV\u9aa8
S'bacfgde'
p731
sV\u64ac
S'bacfged'
p732
sV\u602f
S'bacgdef'
p733
sV\u6db2
S'bacgdfe'
p734
sV\u5339
S'bacgedf'
p735
sV\u583f
S'bacgefd'
p736
sV\u5bbe
S'bacgfde'
p737
sV\u6c47
S'bacgfed'
p738
sV\u6b49
S'badcefg'
p739
sV\u964b
S'badcegf'
p740
sV\u9776
S'badcfeg'
p741
sV\u954d
S'badcfge'
p742
sV\u904f
S'bcgadfe'
p743
sV\u93ce
S'badcgfe'
p744
sV\u7f51
S'badecfg'
p745
sV\u8457
S'badecgf'
p746
sV\u67d6
S'badefcg'
p747
sV\u62d8
S'badefgc'
p748
sV\u6e5b
S'badegcf'
p749
sV\u8bde
S'badegfc'
p750
sV\u5761
S'bdegcaf'
p751
sV\u56e0
S'badfcge'
p752
sV\u75e2
S'badfecg'
p753
sV\u5165
S'badfegc'
p754
sV\u70e4
S'badfgce'
p755
sV\u5b69
S'badfgec'
p756
sV\u866b
S'badgcef'
p757
sV\u84ec
S'badgcfe'
p758
sV\u606f
S'badgecf'
p759
sV\u4ef0
S'badgefc'
p760
sV\u97f6
S'badgfce'
p761
sV\u72f8
S'badgfec'
p762
sV\u5e7b
S'baecdfg'
p763
sV\u51fa
S'baecdgf'
p764
sV\u987f
S'baecfdg'
p765
sV\u55d4
S'baecfgd'
p766
sV\u8681
S'baecgdf'
p767
sV\u8700
S'becagfd'
p768
sV\u6402
S'becdgaf'
p769
sV\u8085
S'baedcgf'
p770
sV\u56de
S'ebdgfac'
p771
sV\u8a89
S'baedfcg'
p772
sV\u978b
S'bedacgf'
p773
sV\u880a
S'baedgfc'
p774
sV\u950c
S'baefcdg'
p775
sV\u718f
S'baefcgd'
p776
sV\u520e
S'baefdcg'
p777
sV\u9f10
S'baefdgc'
p778
sV\u6597
S'baefgdc'
p779
sV\u8fd8
S'bfgcdae'
p780
sV\u4f9b
S'befgdca'
p781
sV\u8d1c
S'baegdfc'
p782
sV\u7720
S'begfdac'
p783
sV\u53a3
S'baegfdc'
p784
sV\u7422
S'bafcdeg'
p785
sV\u5e26
S'bafcdge'
p786
sV\u7b28
S'bafcedg'
p787
sV\u67ab
S'bafcegd'
p788
sV\u582a
S'bafcgde'
p789
sV\u64ad
S'bafcged'
p790
sV\u852c
S'bafdceg'
p791
sV\u6eb1
S'bafdcge'
p792
sV\u4f30
S'bafdecg'
p793
sV\u8bb3
S'bafdegc'
p794
sV\u68b5
S'bafdgce'
p795
sV\u55b7
S'bafdgec'
p796
sV\u5636
S'begcdfa'
p797
sV\u72b9
S'bafecgd'
p798
sV\u7338
S'bafedcg'
p799
sV\u503a
S'bafedgc'
p800
sV\u7cbd
S'bafegcd'
p801
sV\u7f13
S'bafegdc'
p802
sV\u6740
S'bafgcde'
p803
sV\u60c5
S'bafgced'
p804
sV\u83b7
S'cefbagd'
p805
sV\u57cb
S'bafgdec'
p806
sV\u5036
S'bafgecd'
p807
sV\u54cd
S'bafgedc'
p808
sV\u754c
S'bagcdef'
p809
sV\u91cf
S'bfgcaed'
p810
sV\u9ed1
S'bagcedf'
p811
sV\u7f50
S'bfgdace'
p812
sV\u5bd3
S'bagcfde'
p813
sV\u58d5
S'bfgeacd'
p814
sV\u5954
S'bagdcef'
p815
sV\u65d7
S'bagdcfe'
p816
sV\u62d9
S'bagdecf'
p817
sV\u8fdb
S'bagdefc'
p818
sV\u805a
S'bagdfce'
p819
sV\u8d5c
S'bgaedfc'
p820
sV\u8de4
S'ebfadcg'
p821
sV\u5760
S'bgcaefd'
p822
sV\u53e3
S'bagedcf'
p823
sV\u5462
S'bagedfc'
p824
sV\u7164
S'bagefcd'
p825
sV\u5de7
S'bagefdc'
p826
sV\u5ae9
S'bagfcde'
p827
sV\u62e6
S'ebfagcd'
p828
sV\u656c
S'bagfdce'
p829
sV\u9b3c
S'bagfdec'
p830
sV\u8f70
S'bagfecd'
p831
sV\u6c72
S'bagfedc'
p832
sV\u68f5
S'bcadefg'
p833
sV\u8974
S'bcadegf'
p834
sV\u95f7
S'bcadfeg'
p835
sV\u9676
S'bcadfge'
p836
sV\u52f9
S'bcadgef'
p837
sV\u5378
S'bcadgfe'
p838
sV\u7ffb
S'bcaedfg'
p839
sV\u5c3e
S'bcaedgf'
p840
sV\u59ff
S'bcaefdg'
p841
sV\u9a7e
S'bcaefgd'
p842
sV\u8303
S'bcaegdf'
p843
sV\u8482
S'bcaegfd'
p844
sV\u8005
S'bcafdeg'
p845
sV\u4e86
S'bcafdge'
p846
sV\u770b
S'bcafedg'
p847
sV\u540d
S'bcafegd'
p848
sV\u5f90
S'bcafgde'
p849
sV\u7c92
S'bcafged'
p850
sV\u5815
S'bcagdef'
p851
sV\u6696
S'bcagdfe'
p852
sV\u8398
S'bcagedf'
p853
sV\u809a
S'bcagefd'
p854
sV\u6750
S'efgabcd'
p855
sV\u97a0
S'bcagfde'
p856
sV\u5323
S'bcagfed'
p857
sV\u94a2
S'bcdaefg'
p858
sV\u5025
S'bcdaegf'
p859
sV\u51a4
S'bcdafeg'
p860
sV\u7d27
S'bcdafge'
p861
sV\u7ea6
S'bcdagef'
p862
sV\u672b
S'bcdagfe'
p863
sV\u642d
S'bcdeafg'
p864
sV\u8fb0
S'bcdeagf'
p865
sV\u69b4
S'bcdefag'
p866
sV\u7537
S'bcdefga'
p867
sV\u96b6
S'bcdegaf'
p868
sV\u7239
S'bcdegfa'
p869
sV\u9f3b
S'bcdfaeg'
p870
sV\u5c3d
S'bcdfage'
p871
sV\u64c2
S'bcdfega'
p872
sV\u6d47
S'bcdfgae'
p873
sV\u4ec6
S'bcdfgea'
p874
sV\u8bc8
S'cbefagd'
p875
sV\u5fd0
S'bcdgeaf'
p876
sV\u6ee4
S'ecfabdg'
p877
sV\u7855
S'bcdgefa'
p878
sV\u59d4
S'bcdgfae'
p879
sV\u4f5b
S'bcdgfea'
p880
sV\u6c5d
S'bceadfg'
p881
sV\u57e0
S'bceadgf'
p882
sV\u5363
S'bceafdg'
p883
sV\u9065
S'bceafgd'
p884
sV\u51e4
S'bceagdf'
p885
sV\u5be8
S'bceagfd'
p886
sV\u62ee
S'bcedafg'
p887
sV\u4e71
S'bcedagf'
p888
sV\u8ff0
S'bcedfag'
p889
sV\u96f6
S'bcedfga'
p890
sV\u7279
S'bcedgaf'
p891
sV\u53f8
S'bcedgfa'
p892
sV\u5f7b
S'bcefadg'
p893
sV\u56fe
S'bcefagd'
p894
sV\u997f
S'bcefdag'
p895
sV\u8981
S'bcefdga'
p896
sV\u6c83
S'bcefgad'
p897
sV\u8f85
S'bcefgda'
p898
sV\u8106
S'bcegadf'
p899
sV\u870a
S'bcegafd'
p900
sV\u5e8f
S'bcegdaf'
p901
sV\u54ac
S'dcfegba'
p902
sV\u969c
S'ecbfgad'
p903
sV\u9010
S'bcegfad'
p904
sV\u9614
S'bcfadeg'
p905
sV\u8d99
S'bcfadge'
p906
sV\u8c18
S'bcfaedg'
p907
sV\u4f1a
S'bcfaegd'
p908
sV\u7b22
S'bcgafed'
p909
sV\u7126
S'bcfaged'
p910
sV\u5428
S'bcfdaeg'
p911
sV\u88ab
S'bcfdage'
p912
sV\u8bad
S'bcfdeag'
p913
sV\u9189
S'ebfgcad'
p914
sV\u8fdf
S'acdebfg'
p915
sV\u50bb
S'bcfeadg'
p916
sV\u5f3a
S'bcfeagd'
p917
sV\u76bf
S'cegbfda'
p918
sV\u553e
S'bcfedga'
p919
sV\u89c1
S'bcfegad'
p920
sV\u8840
S'bcfegda'
p921
sV\u8fc5
S'bcfgade'
p922
sV\u62c7
S'bcfgaed'
p923
sV\u85c9
S'bcfgdae'
p924
sV\u6448
S'bcfgdea'
p925
sV\u7ecf
S'bcfgead'
p926
sV\u8e0c
S'ebfgdca'
p927
sV\u91d1
S'bcfgeda'
p928
sV\u9050
S'cfbgaed'
p929
sV\u5352
S'bcgaedf'
p930
sV\u4f5a
S'bcgaefd'
p931
sV\u86df
S'bcgafde'
p932
sV\u9e64
S'bcgdaef'
p933
sV\u75e9
S'bcgdafe'
p934
sV\u5468
S'bcgdeaf'
p935
sV\u576a
S'bcgdefa'
p936
sV\u8bed
S'bcgdfae'
p937
sV\u6d6e
S'bcgdfea'
p938
sV\u6070
S'bcgeadf'
p939
sV\u6674
S'bcgeafd'
p940
sV\u5976
S'bcgedaf'
p941
sV\u5df9
S'bcgedfa'
p942
sV\u8c03
S'bcgefad'
p943
sV\u678a
S'bcgefda'
p944
sV\u9a8c
S'bcgfade'
p945
sV\u5999
S'ebgafdc'
p946
sV\u5413
S'bcgfdea'
p947
sV\u9694
S'bcgfead'
p948
sV\u631d
S'bdacefg'
p949
sV\u661f
S'bdacegf'
p950
sV\u5ba2
S'bdacfeg'
p951
sV\u5f25
S'bdacfge'
p952
sV\u7ea4
S'bdacgef'
p953
sV\u9970
S'cegbdfa'
p954
sV\u7529
S'bdaecfg'
p955
sV\u54a8
S'bdaecgf'
p956
sV\u77aa
S'bdaefcg'
p957
sV\u6df3
S'acdgbfe'
p958
sV\u6e2f
S'bdaegcf'
p959
sV\u6dae
S'bdaegfc'
p960
sV\u8131
S'bdafceg'
p961
sV\u7b49
S'dcgbfae'
p962
sV\u83b2
S'bdafcge'
p963
sV\u6735
S'bdafecg'
p964
sV\u66b4
S'bdafegc'
p965
sV\u7a37
S'bdafgce'
p966
sV\u9cb8
S'bdafgec'
p967
sV\u763f
S'bcgfaed'
p968
sV\u75be
S'bdagcfe'
p969
sV\u68c0
S'bdagecf'
p970
sV\u4ec4
S'bdagefc'
p971
sV\u6247
S'bdagfce'
p972
sV\u8549
S'bdagfec'
p973
sV\u7076
S'bdcaefg'
p974
sV\u5acc
S'bdcaegf'
p975
sV\u9e4f
S'bdcafeg'
p976
sV\u5151
S'bdcafge'
p977
sV\u90d0
S'bdcagef'
p978
sV\u5453
S'bdcagfe'
p979
sV\u6f22
S'ebgdacf'
p980
sV\u76d4
S'bdceagf'
p981
sV\u6d59
S'bdcefag'
p982
sV\u4fda
S'bdcefga'
p983
sV\u62dc
S'bdcegaf'
p984
sV\u5267
S'bdcegfa'
p985
sV\u886b
S'bdcfaeg'
p986
sV\u6dee
S'bdcfage'
p987
sV\u60f0
S'bdcfeag'
p988
sV\u83f2
S'bdcfega'
p989
sV\u66f4
S'bdcfgae'
p990
sV\u7a77
S'bdcfgea'
p991
sV\u507b
S'bdcgaef'
p992
sV\u72fc
S'bdcgafe'
p993
sV\u55fe
S'bdcgeaf'
p994
sV\u8881
S'bdcgefa'
p995
sV\u6001
S'acebfdg'
p996
sV\u532a
S'bdcgfea'
p997
sV\u6e85
S'bdeacfg'
p998
sV\u660a
S'bdeacgf'
p999
sV\u7a8d
S'bdeafcg'
p1000
sV\u9091
S'bdeafgc'
p1001
sV\u5212
S'bdeagcf'
p1002
sV\u6c99
S'bdecafg'
p1003
sV\u819b
S'bdecagf'
p1004
sV\u4e1a
S'bdecfag'
p1005
sV\u829d
S'bdecfga'
p1006
sV\u641e
S'bdecgaf'
p1007
sV\u5ea5
S'bdecgfa'
p1008
sV\u7f24
S'bdefacg'
p1009
sV\u94a9
S'bdefagc'
p1010
sV\u7528
S'bdefcag'
p1011
sV\u4faf
S'bdefcga'
p1012
sV\u6734
S'bdefgac'
p1013
sV\u51bb
S'bdefgca'
p1014
sV\u543e
S'bdegacf'
p1015
sV\u88c1
S'bdegafc'
p1016
sV\u7761
S'badfceg'
p1017
sV\u8dc3
S'bdegcfa'
p1018
sV\u4ec5
S'bdegfac'
p1019
sV\u5eb7
S'bgafcde'
p1020
sV\u83c7
S'bdfaceg'
p1021
sV\u84c9
S'bdfacge'
p1022
sV\u6548
S'bdfaecg'
p1023
sV\u59cb
S'bdfaegc'
p1024
sV\u5c4e
S'bdfagce'
p1025
sV\u90d1
S'bdfagec'
p1026
sV\u79b9
S'bdfcaeg'
p1027
sV\u65e2
S'dcgfaeb'
p1028
sV\u96d5
S'bdfcage'
p1029
sV\u8bd7
S'bdfceag'
p1030
sV\u8d58
S'bdfcega'
p1031
sV\u94bb
S'bgafdec'
p1032
sV\u53e7
S'bdfcgea'
p1033
sV\u54e9
S'bdfeacg'
p1034
sV\u966a
S'bdfeagc'
p1035
sV\u4fef
S'bdfecag'
p1036
sV\u6170
S'bdfecga'
p1037
sV\u8272
S'bdfegac'
p1038
sV\u8774
S'bdfegca'
p1039
sV\u9876
S'bdfgace'
p1040
sV\u51fb
S'bdfgaec'
p1041
sV\u9e7a
S'bdfgcae'
p1042
sV\u77ff
S'bdfgcea'
p1043
sV\u6e05
S'bdfgeac'
p1044
sV\u4f84
S'bdfgeca'
p1045
sV\u6307
S'bdgacef'
p1046
sV\u8086
S'bdgacfe'
p1047
sV\u7a0d
S'bdgaecf'
p1048
sV\u5b8c
S'bdgaefc'
p1049
sV\u5f0f
S'bdgafce'
p1050
sV\u7011
S'bdgafec'
p1051
sV\u5020
S'bdgcaef'
p1052
sV\u8896
S'bdgcafe'
p1053
sV\u8c19
S'bdgceaf'
p1054
sV\u6bc5
S'bgcadfe'
p1055
sV\u4e9a
S'bdgcfae'
p1056
sV\u671f
S'bdgcfea'
p1057
sV\u649e
S'bdgeacf'
p1058
sV\u5821
S'bdgeafc'
p1059
sV\u9e25
S'bdgecaf'
p1060
sV\u7fa4
S'bdgecfa'
p1061
sV\u90a6
S'bdgefac'
p1062
sV\u5429
S'bdgefca'
p1063
sV\u4f2f
S'bdgface'
p1064
sV\u6cae
S'bdgfaec'
p1065
sV\u4ef6
S'egcdbfa'
p1066
sV\u6635
S'bdgfcae'
p1067
sV\u5048
S'ecadbfg'
p1068
sV\u7eba
S'bdgfcea'
p1069
sV\u723d
S'bdgfeac'
p1070
sV\u94be
S'eacdfbg'
p1071
sV\u4e45
S'beacdfg'
p1072
sV\u4fc4
S'beacdgf'
p1073
sV\u80c6
S'beacfdg'
p1074
sV\u94dd
S'efgadcb'
p1075
sV\u594b
S'beacfgd'
p1076
sV\u77f6
S'beacgdf'
p1077
sV\u5bcc
S'beacgfd'
p1078
sV\u52d2
S'beadcfg'
p1079
sV\u9655
S'beadcgf'
p1080
sV\u57d4
S'beadfcg'
p1081
sV\u6dd8
S'beadfgc'
p1082
sV\u6eda
S'beadgcf'
p1083
sV\u83dc
S'beadgfc'
p1084
sV\u675f
S'beafcdg'
p1085
sV\u64de
S'beafcgd'
p1086
sV\u5367
S'beafdcg'
p1087
sV\u70e6
S'beafdgc'
p1088
sV\u95e8
S'beafgcd'
p1089
sV\u96ea
S'beafgdc'
p1090
sV\u8f6f
S'beagcdf'
p1091
sV\u773a
S'beagcfd'
p1092
sV\u67f4
S'beagdcf'
p1093
sV\u7b77
S'beagdfc'
p1094
sV\u517b
S'beagfcd'
p1095
sV\u5efa
S'beagfdc'
p1096
sV\u94fe
S'becadfg'
p1097
sV\u8a00
S'becadgf'
p1098
sV\u8e83
S'becafdg'
p1099
sV\u8902
S'becafgd'
p1100
sV\u8d85
S'becagdf'
p1101
sV\u6700
S'baecgfd'
p1102
sV\u6789
S'becdafg'
p1103
sV\u9a8b
S'becdagf'
p1104
sV\u998d
S'becdfag'
p1105
sV\u7f0e
S'becdfga'
p1106
sV\u5112
S'ecagfdb'
p1107
sV\u6897
S'becdgfa'
p1108
sV\u5858
S'ecadgfb'
p1109
sV\u8f99
S'becfadg'
p1110
sV\u4e18
S'becfagd'
p1111
sV\u629b
S'becfdag'
p1112
sV\u601c
S'becfdga'
p1113
sV\u871e
S'becfgad'
p1114
sV\u7ba1
S'becfgda'
p1115
sV\u7a20
S'becgadf'
p1116
sV\u5d2d
S'efbcgda'
p1117
sV\u5c24
S'becgafd'
p1118
sV\u5326
S'becgdaf'
p1119
sV\u83b1
S'becgdfa'
p1120
sV\u62df
S'bgcdfea'
p1121
sV\u5e38
S'becgfda'
p1122
sV\u51bd
S'bedacfg'
p1123
sV\u578b
S'baedgcf'
p1124
sV\u573e
S'bedafcg'
p1125
sV\u6bc1
S'bedafgc'
p1126
sV\u6dc5
S'bedagcf'
p1127
sV\u8346
S'bedagfc'
p1128
sV\u519c
S'ebcfgad'
p1129
sV\u7acb
S'edcbfag'
p1130
sV\u79cd
S'bedcagf'
p1131
sV\u784c
S'bedcfag'
p1132
sV\u53d1
S'bedcfga'
p1133
sV\u9152
S'bedcgaf'
p1134
sV\u75d5
S'bedcgfa'
p1135
sV\u8fd9
S'bedfacg'
p1136
sV\u4e58
S'bedfagc'
p1137
sV\u62db
S'bedfcag'
p1138
sV\u84df
S'bedfcga'
p1139
sV\u5be1
S'bedfgac'
p1140
sV\u7ee3
S'bedfgca'
p1141
sV\u5de5
S'bedgacf'
p1142
sV\u90e7
S'afgecbd'
p1143
sV\u5366
S'bedgcaf'
p1144
sV\u77e9
S'bedgcfa'
p1145
sV\u9668
S'bdacgfe'
p1146
sV\u756a
S'bedgfca'
p1147
sV\u6cef
S'befacdg'
p1148
sV\u6f6e
S'befacgd'
p1149
sV\u6270
S'befadcg'
p1150
sV\u78f7
S'befadgc'
p1151
sV\u5e78
S'befagcd'
p1152
sV\u51fd
S'befagdc'
p1153
sV\u707c
S'befcadg'
p1154
sV\u777e
S'befcagd'
p1155
sV\u6a80
S'befcdag'
p1156
sV\u4e03
S'befcdga'
p1157
sV\u6982
S'befcgad'
p1158
sV\u996d
S'eafbcgd'
p1159
sV\u8386
S'befcgda'
p1160
sV\u6709
S'befdacg'
p1161
sV\u7a0b
S'befdagc'
p1162
sV\u590d
S'befdcag'
p1163
sV\u788c
S'befdcga'
p1164
sV\u5c0f
S'befdgac'
p1165
sV\u7f8e
S'befdgca'
p1166
sV\u7311
S'befgacd'
p1167
sV\u5192
S'befgadc'
p1168
sV\u6b96
S'befgcad'
p1169
sV\u4f19
S'befgcda'
p1170
sV\u8e2a
S'cefadbg'
p1171
sV\u8d64
S'ebafcgd'
p1172
sV\u8f9b
S'baegdcf'
p1173
sV\u679e
S'begacdf'
p1174
sV\u7aa0
S'begacfd'
p1175
sV\u9e23
S'begadcf'
p1176
sV\u901a
S'deafgbc'
p1177
sV\u7ca4
S'begafcd'
p1178
sV\u53a6
S'begafdc'
p1179
sV\u80f3
S'begcadf'
p1180
sV\u6c2f
S'begcafd'
p1181
sV\u4fae
S'begcdaf'
p1182
sV\u7837
S'begcfda'
p1183
sV\u5bb6
S'begdacf'
p1184
sV\u5f39
S'begdafc'
p1185
sV\u7eb8
S'begdcaf'
p1186
sV\u723b
S'abdfgce'
p1187
sV\u70bc
S'begdfac'
p1188
sV\u6b41
S'begdfca'
p1189
sV\u4e43
S'begfacd'
p1190
sV\u89c2
S'begfadc'
p1191
sV\u6d45
S'begfcad'
p1192
sV\u6cc4
S'begfcda'
p1193
sV\u5720
S'baegfcd'
p1194
sV\u6749
S'begfdca'
p1195
sV\u5c4f
S'bfacdeg'
p1196
sV\u5351
S'bfacdge'
p1197
sV\u72d0
S'bfacedg'
p1198
sV\u8857
S'bfacegd'
p1199
sV\u8bd6
S'bfacgde'
p1200
sV\u4f59
S'bfacged'
p1201
sV\u4ed8
S'bfadceg'
p1202
sV\u625b
S'bfadcge'
p1203
sV\u54ce
S'bfadecg'
p1204
sV\u80dc
S'bfadegc'
p1205
sV\u7ae0
S'bfadgce'
p1206
sV\u53e6
S'bfadgec'
p1207
sV\u5769
S'acdgbef'
p1208
sV\u96e8
S'bfaecgd'
p1209
sV\u95ea
S'bfaedcg'
p1210
sV\u8fee
S'acegbfd'
p1211
sV\u6673
S'bfaegcd'
p1212
sV\u9877
S'bfaegdc'
p1213
sV\u5f79
S'bfagcde'
p1214
sV\u517d
S'bfagced'
p1215
sV\u77fe
S'bfagdce'
p1216
sV\u8f83
S'bfagdec'
p1217
sV\u8206
S'bfagecd'
p1218
sV\u6708
S'bfagedc'
p1219
sV\u5b8b
S'bfcadeg'
p1220
sV\u788d
S'bfcadge'
p1221
sV\u9012
S'bfcaedg'
p1222
sV\u5495
S'bfcaegd'
p1223
sV\u4f18
S'bfcagde'
p1224
sV\u62fe
S'egcfabd'
p1225
sV\u809d
S'bfcaged'
p1226
sV\u7a84
S'ecbdagf'
p1227
sV\u9aa1
S'bfcdage'
p1228
sV\u7b20
S'bfcdeag'
p1229
sV\u7ca5
S'bfcdega'
p1230
sV\u5728
S'bfcdgae'
p1231
sV\u742a
S'bfcdgea'
p1232
sV\u88ad
S'bfceadg'
p1233
sV\u82b1
S'adgfbce'
p1234
sV\u8109
S'bgdafec'
p1235
sV\u67b3
S'bfcedga'
p1236
sV\u7eb9
S'bfcegad'
p1237
sV\u7f38
S'bfcegda'
p1238
sV\u73bb
S'aebgdfc'
p1239
sV\u5c3a
S'bfcgaed'
p1240
sV\u70bd
S'bfcgdae'
p1241
sV\u4fc3
S'bfcgdea'
p1242
sV\u6842
S'bfcgead'
p1243
sV\u8d44
S'bfcgeda'
p1244
sV\u644a
S'bfdaecg'
p1245
sV\u62b9
S'debafcg'
p1246
sV\u7554
S'bfdagce'
p1247
sV\u4ed9
S'bfdagec'
p1248
sV\u6f58
S'bfdcaeg'
p1249
sV\u865e
S'bfdcage'
p1250
sV\u6beb
S'bfdceag'
p1251
sV\u8def
S'bfdcega'
p1252
sV\u8d3c
S'debcafg'
p1253
sV\u62f1
S'afcgebd'
p1254
sV\u67f3
S'bfdeacg'
p1255
sV\u7792
S'bgdcfae'
p1256
sV\u8574
S'bdeagfc'
p1257
sV\u7a76
S'bfdecga'
p1258
sV\u7315
S'bgdcfea'
p1259
sV\u5c7a
S'bfdegca'
p1260
sV\u90fd
S'bfdgace'
p1261
sV\u517c
S'bfdgaec'
p1262
sV\u767e
S'bfdgcae'
p1263
sV\u8c05
S'bfdgcea'
p1264
sV\u8d84
S'bfdgeac'
p1265
sV\u6286
S'bfdgeca'
p1266
sV\u780d
S'bfeacdg'
p1267
sV\u5211
S'bfeacgd'
p1268
sV\u7092
S'bfeadgc'
p1269
sV\u5415
S'bfeagcd'
p1270
sV\u4e19
S'bfeagdc'
p1271
sV\u631b
S'bfecadg'
p1272
sV\u601d
S'bfecagd'
p1273
sV\u819c
S'bfecdag'
p1274
sV\u5ba0
S'bfecdga'
p1275
sV\u54aa
S'bfecgda'
p1276
sV\u8d2f
S'bfedacg'
p1277
sV\u4eae
S'bfedagc'
p1278
sV\u8231
S'bfedcag'
p1279
sV\u60b2
S'agfbcde'
p1280
sV\u5937
S'bfedgac'
p1281
sV\u533b
S'bfedgca'
p1282
sV\u7cba
S'bfegacd'
p1283
sV\u96be
S'bfegadc'
p1284
sV\u4f43
S'bfegcad'
p1285
sV\u88c2
S'bfegcda'
p1286
sV\u6c45
S'bfegdac'
p1287
sV\u6dc4
S'bacfdge'
p1288
sV\u62c6
S'bfgacde'
p1289
sV\u7b4b
S'bfgaced'
p1290
sV\u80f6
S'cfdaegb'
p1291
sV\u7823
S'bgdefac'
p1292
sV\u9ece
S'bfgaecd'
p1293
sV\u5251
S'bfgaedc'
p1294
sV\u5455
S'bfgcade'
p1295
sV\u75d4
S'adebcgf'
p1296
sV\u4fd8
S'baegcdf'
p1297
sV\u8361
S'cgbedfa'
p1298
sV\u6ed1
S'debfagc'
p1299
sV\u5c65
S'bfgcead'
p1300
sV\u7167
S'bfgceda'
p1301
sV\u9f50
S'bagcefd'
p1302
sV\u9669
S'bfgdaec'
p1303
sV\u54ea
S'bfgdcea'
p1304
sV\u8475
S'bfgdeac'
p1305
sV\u65f4
S'bcdfeag'
p1306
sV\u78d5
S'bagcfed'
p1307
sV\u957f
S'bfgecad'
p1308
sV\u76fe
S'bfgecda'
p1309
sV\u8d81
S'bfgedac'
p1310
sV\u8c00
S'bfgedca'
p1311
sV\u6f02
S'bgacdef'
p1312
sV\u8008
S'bgacdfe'
p1313
sV\u5e0c
S'bgacefd'
p1314
sV\u7591
S'bgacfde'
p1315
sV\u5410
S'bgacfed'
p1316
sV\u9093
S'bgadcef'
p1317
sV\u679d
S'bgadcfe'
p1318
sV\u629f
S'bgadecf'
p1319
sV\u811e
S'bgadefc'
p1320
sV\u7531
S'ecdabfg'
p1321
sV\u9526
S'bgadfec'
p1322
sV\u5028
S'bgaecdf'
p1323
sV\u6cab
S'bgaecfd'
p1324
sV\u732a
S'bgaedcf'
p1325
sV\u63b5
S'bgaefcd'
p1326
sV\u6234
S'bgaefdc'
p1327
sV\u7eb7
S'bdegfca'
p1328
sV\u59b9
S'bgafced'
p1329
sV\u7838
S'bgafdce'
p1330
sV\u54bb
S'bdfcgae'
p1331
sV\u7b3a
S'bgafecd'
p1332
sV\u52bf
S'bgafedc'
p1333
sV\u6c40
S'bgcadef'
p1334
sV\u8bc5
S'bdgcefa'
p1335
sV\u86c7
S'bgcaedf'
p1336
sV\u9760
S'bagecfd'
p1337
sV\u94c0
S'ecbdfag'
p1338
sV\u5fcd
S'bgcafde'
p1339
sV\u5e4c
S'bgcafed'
p1340
sV\u594e
S'bgcdaef'
p1341
sV\u9752
S'bgcdafe'
p1342
sV\u548f
S'bgcdeaf'
p1343
sV\u4ed7
S'bgcdefa'
p1344
sV\u8d56
S'bgcdfae'
p1345
sV\u82df
S'becgfad'
p1346
sV\u5de1
S'bgceadf'
p1347
sV\u7f62
S'bgceafd'
p1348
sV\u5be5
S'bgcedaf'
p1349
sV\u56e7
S'bgcedfa'
p1350
sV\u5566
S'bgcefad'
p1351
sV\u82e5
S'dbfaecg'
p1352
sV\u8e6c
S'bgcfade'
p1353
sV\u65f1
S'bgcfaed'
p1354
sV\u60f3
S'bgcfdae'
p1355
sV\u6772
S'begcfad'
p1356
sV\u5ef7
S'bgcfead'
p1357
sV\u97fd
S'bgcfeda'
p1358
sV\u767c
S'bgdacef'
p1359
sV\u52ff
S'bgdacfe'
p1360
sV\u6c14
S'cfdebga'
p1361
sV\u6d01
S'bgdaefc'
p1362
sV\u6a84
S'bgdafce'
p1363
sV\u6109
S'bfcedag'
p1364
sV\u54ed
S'debgcfa'
p1365
sV\u7c97
S'edgabfc'
p1366
sV\u5490
S'bgdceaf'
p1367
sV\u5792
S'bfdeagc'
p1368
sV\u5315
S'bfdegac'
p1369
sV\u6e17
S'bgdeacf'
p1370
sV\u6b9a
S'bfecgad'
p1371
sV\u671d
S'bgdecaf'
p1372
sV\u821f
S'bgdecfa'
p1373
sV\u9823
S'bfgadec'
p1374
sV\u5fa2
S'bgdefca'
p1375
sV\u9aa4
S'bgdface'
p1376
sV\u4f70
S'bgdfaec'
p1377
sV\u50a8
S'bgdfcae'
p1378
sV\u4eac
S'bgdfcea'
p1379
sV\u9636
S'bafecdg'
p1380
sV\u8033
S'bgdfeca'
p1381
sV\u8335
S'bgeacdf'
p1382
sV\u5e37
S'bgeacfd'
p1383
sV\u5939
S'bgeadcf'
p1384
sV\u543b
S'bgeadfc'
p1385
sV\u6f1e
S'bgeafcd'
p1386
sV\u56bc
S'bgeafdc'
p1387
sV\u5974
S'decabfg'
p1388
sV\u6d41
S'bgecafd'
p1389
sV\u6843
S'bgecdaf'
p1390
sV\u8fc2
S'bgecdfa'
p1391
sV\u5c4b
S'bgecfad'
p1392
sV\u83ca
S'bgecfda'
p1393
sV\u9053
S'bgedacf'
p1394
sV\u68e4
S'efcbagd'
p1395
sV\u5355
S'bgedafc'
p1396
sV\u92d4
S'bgedcaf'
p1397
sV\u6dd6
S'bgedcfa'
p1398
sV\u845b
S'bgedfac'
p1399
sV\u8bda
S'bgedfca'
p1400
sV\u66dc
S'bgefacd'
p1401
sV\u7ce0
S'bgefadc'
p1402
sV\u52af
S'dfgebca'
p1403
sV\u90e8
S'bgefcda'
p1404
sV\u8c6b
S'bgefdac'
p1405
sV\u53ea
S'bgefdca'
p1406
sV\u6f6d
S'bgfacde'
p1407
sV\u4eec
S'bgfaced'
p1408
sV\u6073
S'bgfadce'
p1409
sV\u508e
S'bgfadec'
p1410
sV\u62f4
S'bgfaecd'
p1411
sV\u5979
S'bgfaedc'
p1412
sV\u5bfa
S'bgfcade'
p1413
sV\u76fc
S'bgfcaed'
p1414
sV\u527f
S'bgfcdae'
p1415
sV\u62d4
S'ecdgbaf'
p1416
sV\u6c81
S'bgfcead'
p1417
sV\u8983
S'bgfceda'
p1418
sV\u6d2a
S'cfdgeba'
p1419
sV\u6787
S'bgfdaec'
p1420
sV\u6089
S'bgfdcae'
p1421
sV\u6108
S'bgfdcea'
p1422
sV\u5b8f
S'bgfdeac'
p1423
sV\u8c89
S'bgfdeca'
p1424
sV\u9510
S'bgfeacd'
p1425
sV\u6482
S'bgfeadc'
p1426
sV\u8f97
S'bgfecad'
p1427
sV\u8c16
S'bgfecda'
p1428
sV\u859b
S'bgfedac'
p1429
sV\u871c
S'bgfedca'
p1430
sV\u7d20
S'cabdefg'
p1431
sV\u9aa5
S'cabdegf'
p1432
sV\u77a7
S'cabdfeg'
p1433
sV\u5426
S'cabdfge'
p1434
sV\u50a9
S'cabdgef'
p1435
sV\u722a
S'cabedfg'
p1436
sV\u4ead
S'cabedgf'
p1437
sV\u7728
S'cabefdg'
p1438
sV\u8baf
S'cabefgd'
p1439
sV\u62b5
S'cabegdf'
p1440
sV\u6334
S'cabegfd'
p1441
sV\u5fb7
S'cabfdeg'
p1442
sV\u5938
S'cabfedg'
p1443
sV\u55bb
S'cabfegd'
p1444
sV\u773c
S'cabfgde'
p1445
sV\u53bf
S'cabfged'
p1446
sV\u503e
S'cabgdef'
p1447
sV\u4e42
S'cabgedf'
p1448
sV\u96fe
S'adcgefb'
p1449
sV\u6148
S'cabgfde'
p1450
sV\u7ecd
S'cabgfed'
p1451
sV\u6863
S'ecfadbg'
p1452
sV\u54d1
S'cadbegf'
p1453
sV\u5ea6
S'dbfegac'
p1454
sV\u610f
S'decfagb'
p1455
sV\u4fd7
S'cadbfge'
p1456
sV\u88d9
S'cadbgef'
p1457
sV\u66dd
S'cadbgfe'
p1458
sV\u675c
S'cadebfg'
p1459
sV\u63df
S'cadebgf'
p1460
sV\u5ce1
S'cadefbg'
p1461
sV\u4e11
S'decfbag'
p1462
sV\u59e3
S'cadegbf'
p1463
sV\u5e62
S'cadegfb'
p1464
sV\u7ae5
S'cadfbeg'
p1465
sV\u5b64
S'cadfbge'
p1466
sV\u97e7
S'cadfebg'
p1467
sV\u70e9
S'cadfegb'
p1468
sV\u5168
S'cadfgbe'
p1469
sV\u6deb
S'cadfgeb'
p1470
sV\u526a
S'cadgbef'
p1471
sV\u8f6c
S'cadgbfe'
p1472
sV\u8bef
S'cadgebf'
p1473
sV\u683c
S'cfebgad'
p1474
sV\u6570
S'cadgefb'
p1475
sV\u81f3
S'cadgfbe'
p1476
sV\u70e8
S'cadgfeb'
p1477
sV\u58f9
S'caebdfg'
p1478
sV\u7978
S'caebdgf'
p1479
sV\u95fb
S'caebfdg'
p1480
sV\u7a7a
S'caebfgd'
p1481
sV\u56fd
S'caebgdf'
p1482
sV\u707e
S'caedbfg'
p1483
sV\u8c01
S'caedbgf'
p1484
sV\u8188
S'caedfgb'
p1485
sV\u628a
S'caedgbf'
p1486
sV\u7f8c
S'caedgfb'
p1487
sV\u788e
S'caefbdg'
p1488
sV\u5411
S'caefbgd'
p1489
sV\u5175
S'efcdbag'
p1490
sV\u4f17
S'caefdgb'
p1491
sV\u75c5
S'cfedagb'
p1492
sV\u679c
S'caefgdb'
p1493
sV\u7ea2
S'caegbdf'
p1494
sV\u5a25
S'caegbfd'
p1495
sV\u5ba4
S'caegdbf'
p1496
sV\u94a6
S'caegdfb'
p1497
sV\u5029
S'caegfbd'
p1498
sV\u8d2b
S'caegfdb'
p1499
sV\u52aa
S'cafbdeg'
p1500
sV\u4e2d
S'cafbdge'
p1501
sV\u65b0
S'cafbedg'
p1502
sV\u8e48
S'cafbegd'
p1503
sV\u9839
S'cafbgde'
p1504
sV\u753b
S'cafbged'
p1505
sV\u82f4
S'cafdbeg'
p1506
sV\u6c41
S'cafdbge'
p1507
sV\u8d4a
S'cafdebg'
p1508
sV\u8bc4
S'cafdegb'
p1509
sV\u8747
S'cafdgbe'
p1510
sV\u57a0
S'dcbegfa'
p1511
sV\u61c8
S'cgaefbd'
p1512
sV\u5fcc
S'cafebgd'
p1513
sV\u9b4f
S'cafedbg'
p1514
sV\u98ce
S'cafedgb'
p1515
sV\u76d2
S'cafegbd'
p1516
sV\u53d4
S'cafegdb'
p1517
sV\u67dc
S'cafgbde'
p1518
sV\u635f
S'cafgbed'
p1519
sV\u80de
S'cafgdbe'
p1520
sV\u5c61
S'cafgdeb'
p1521
sV\u74e6
S'cafgebd'
p1522
sV\u8d6b
S'cafgedb'
p1523
sV\u9ea6
S'cagbdef'
p1524
sV\u8e6d
S'cagbdfe'
p1525
sV\u5ed3
S'cagbedf'
p1526
sV\u68ee
S'cagbefd'
p1527
sV\u8471
S'cagbfde'
p1528
sV\u66f2
S'cagbfed'
p1529
sV\u63f4
S'cagdbef'
p1530
sV\u5f77
S'cagdbfe'
p1531
sV\u9879
S'cagdebf'
p1532
sV\u79f8
S'cagdefb'
p1533
sV\u7afa
S'cagdfeb'
p1534
sV\u767d
S'cagebdf'
p1535
sV\u537f
S'cagebfd'
p1536
sV\u4e00
S'cagedbf'
p1537
sV\u8389
S'cagdfbe'
p1538
sV\u6208
S'cagefbd'
p1539
sV\u810a
S'cagefdb'
p1540
sV\u9014
S'cagfbde'
p1541
sV\u6574
S'bfdecag'
p1542
sV\u641c
S'cagfbed'
p1543
sV\u609f
S'cagfdbe'
p1544
sV\u5fa1
S'cagfdeb'
p1545
sV\u7530
S'ecgdfba'
p1546
sV\u7d22
S'cagfebd'
p1547
sV\u59a5
S'cagfedb'
p1548
sV\u5824
S'cbadefg'
p1549
sV\u53a9
S'bgacedf'
p1550
sV\u4eab
S'cbadfeg'
p1551
sV\u8c2c
S'cbadfge'
p1552
sV\u68af
S'cbadgef'
p1553
sV\u67b1
S'cbadgfe'
p1554
sV\u8089
S'cbaedfg'
p1555
sV\u82b3
S'cbaedgf'
p1556
sV\u5bb9
S'cbaefdg'
p1557
sV\u793a
S'cbaefgd'
p1558
sV\u55bd
S'cbaegdf'
p1559
sV\u8fc1
S'cbaegfd'
p1560
sV\u8d42
S'cbafdeg'
p1561
sV\u89c5
S'cbafdge'
p1562
sV\u6746
S'cbafedg'
p1563
sV\u63c9
S'cbafegd'
p1564
sV\u814a
S'cbafgde'
p1565
sV\u5c4c
S'cbafged'
p1566
sV\u9650
S'cbagdef'
p1567
sV\u71d5
S'cbagdfe'
p1568
sV\u6cd7
S'cbagedf'
p1569
sV\u6bd9
S'cbagefd'
p1570
sV\u695a
S'cbagfde'
p1571
sV\u60df
S'cegdbfa'
p1572
sV\u635e
S'cbdaefg'
p1573
sV\u7fe1
S'cbdaegf'
p1574
sV\u5ae3
S'cbdafeg'
p1575
sV\u59e5
S'cbdafge'
p1576
sV\u54e7
S'cbdagef'
p1577
sV\u5510
S'cbdagfe'
p1578
sV\u79bb
S'bagdfec'
p1579
sV\u6b66
S'cfgaedb'
p1580
sV\u67f1
S'cbdefga'
p1581
sV\u6670
S'afcebgd'
p1582
sV\u62f3
S'cbdegfa'
p1583
sV\u6572
S'cbdfaeg'
p1584
sV\u5bf9
S'cbdfage'
p1585
sV\u997a
S'adefbcg'
p1586
sV\u547c
S'cbdfgae'
p1587
sV\u4f01
S'cbdfgea'
p1588
sV\u6d82
S'cbdgaef'
p1589
sV\u6905
S'cbdgafe'
p1590
sV\u8884
S'cbdgeaf'
p1591
sV\u6309
S'cbdgefa'
p1592
sV\u818a
S'cbdgfae'
p1593
sV\u9690
S'cbdgfea'
p1594
sV\u7115
S'cbeadfg'
p1595
sV\u849c
S'cbeadgf'
p1596
sV\u7ea0
S'cbeafdg'
p1597
sV\u98a4
S'cbeafgd'
p1598
sV\u5427
S'cbeagdf'
p1599
sV\u57a6
S'cbeagfd'
p1600
sV\u52a8
S'cbedafg'
p1601
sV\u4e2b
S'cbedagf'
p1602
sV\u8d2d
S'cbedfag'
p1603
sV\u8bae
S'cbedfga'
p1604
sV\u6731
S'cbedgaf'
p1605
sV\u86b0
S'cbedgfa'
p1606
sV\u8233
S'cbefadg'
p1607
sV\u963b
S'cbefdag'
p1608
sV\u59ba
S'cbefdga'
p1609
sV\u4ec0
S'cbefgad'
p1610
sV\u6447
S'cbefgda'
p1611
sV\u6349
S'cbegadf'
p1612
sV\u61ca
S'cbegafd'
p1613
sV\u9ccc
S'cbegdaf'
p1614
sV\u5751
S'cbegdfa'
p1615
sV\u76d0
S'cbegfad'
p1616
sV\u9253
S'cbegfda'
p1617
sV\u4e22
S'ecgbfda'
p1618
sV\u6c57
S'cbfadge'
p1619
sV\u7f61
S'cbfaegd'
p1620
sV\u5de2
S'cbfagde'
p1621
sV\u7965
S'bfgeadc'
p1622
sV\u58e4
S'cbfdaeg'
p1623
sV\u97e6
S'cbfdage'
p1624
sV\u6e6b
S'cbfdeag'
p1625
sV\u8bee
S'cbfdega'
p1626
sV\u66f0
S'dgebcfa'
p1627
sV\u8273
S'cbfdgea'
p1628
sV\u80f4
S'cbfeadg'
p1629
sV\u7b79
S'cbfeagd'
p1630
sV\u767b
S'cbfedag'
p1631
sV\u707f
S'acbgfde'
p1632
sV\u8301
S'cbfegad'
p1633
sV\u8c02
S'dgfbcea'
p1634
sV\u6885
S'cbfgade'
p1635
sV\u6587
S'cbfgaed'
p1636
sV\u6606
S'cbfgdae'
p1637
sV\u5f8b
S'cbfgdea'
p1638
sV\u9c8d
S'cbfgead'
p1639
sV\u5d0c
S'cbfgeda'
p1640
sV\u798f
S'cbgadef'
p1641
sV\u7a0e
S'cbgadfe'
p1642
sV\u4e16
S'cbgaedf'
p1643
sV\u821e
S'cbgaefd'
p1644
sV\u5f20
S'cbgafde'
p1645
sV\u5ba3
S'cbgafed'
p1646
sV\u5ffb
S'cdgfeab'
p1647
sV\u55a7
S'cbgdaef'
p1648
sV\u7626
S'cbgdafe'
p1649
sV\u52a9
S'cbgdeaf'
p1650
sV\u502a
S'cbgdefa'
p1651
sV\u63b3
S'cbgdfae'
p1652
sV\u9632
S'ecgfadb'
p1653
sV\u77bb
S'cbgeadf'
p1654
sV\u4ec1
S'cbgeafd'
p1655
sV\u6c42
S'cbgedaf'
p1656
sV\u88c5
S'cbgedfa'
p1657
sV\u8944
S'cbgefad'
p1658
sV\u62c9
S'cbgefda'
p1659
sV\u804a
S'cbgfade'
p1660
sV\u5d4c
S'cbgfaed'
p1661
sV\u76d1
S'cbgfdae'
p1662
sV\u5750
S'cbgfdea'
p1663
sV\u93e0
S'efagcdb'
p1664
sV\u5154
S'cbgfead'
p1665
sV\u6e56
S'cbgfeda'
p1666
sV\u5065
S'cdabefg'
p1667
sV\u84dd
S'cdabegf'
p1668
sV\u5740
S'debcfag'
p1669
sV\u8feb
S'cdabfeg'
p1670
sV\u6770
S'cdabfge'
p1671
sV\u9992
S'cdabgef'
p1672
sV\u5df7
S'cdabgfe'
p1673
sV\u5e76
S'cdaebfg'
p1674
sV\u7af9
S'cdaebgf'
p1675
sV\u7981
S'degcfba'
p1676
sV\u987a
S'cdaefbg'
p1677
sV\u503c
S'cdaefgb'
p1678
sV\u4e01
S'cdaegbf'
p1679
sV\u6c82
S'cdaegfb'
p1680
sV\u6388
S'cdafbge'
p1681
sV\u808a
S'cdafebg'
p1682
sV\u590f
S'cdafegb'
p1683
sV\u9611
S'cdafgbe'
p1684
sV\u5492
S'cdafgeb'
p1685
sV\u7194
S'cdagbef'
p1686
sV\u6d17
S'cdagbfe'
p1687
sV\u671b
S'cdagebf'
p1688
sV\u841d
S'cdagefb'
p1689
sV\u659c
S'cdagfbe'
p1690
sV\u611f
S'cdagfeb'
p1691
sV\u629e
S'cdbaefg'
p1692
sV\u9e21
S'cdbaegf'
p1693
sV\u5229
S'cdbafeg'
p1694
sV\u53a8
S'cdbafge'
p1695
sV\u6f2b
S'cdbagef'
p1696
sV\u6446
S'cabgefd'
p1697
sV\u8c2d
S'cdbeafg'
p1698
sV\u83e9
S'efadcgb'
p1699
sV\u989c
S'cgadbef'
p1700
sV\u84b2
S'cdbefag'
p1701
sV\u8c1f
S'cdbefga'
p1702
sV\u8148
S'cdbegaf'
p1703
sV\u75bc
S'cdbegfa'
p1704
sV\u513f
S'cdbfaeg'
p1705
sV\u6fc0
S'cdbfage'
p1706
sV\u8845
S'cdbfeag'
p1707
sV\u89c4
S'cdbfega'
p1708
sV\u60ca
S'cdbfgea'
p1709
sV\u7c4d
S'cdbgaef'
p1710
sV\u594f
S'cdbgafe'
p1711
sV\u5353
S'cdbgeaf'
p1712
sV\u4ed6
S'cdbgefa'
p1713
sV\u6a59
S'cdbgfae'
p1714
sV\u7525
S'bfeadcg'
p1715
sV\u68da
S'cdeabfg'
p1716
sV\u82de
S'cdeabgf'
p1717
sV\u8717
S'cdeafbg'
p1718
sV\u5fe0
S'cdeafgb'
p1719
sV\u5b63
S'cdeagbf'
p1720
sV\u60fa
S'degcbaf'
p1721
sV\u79e4
S'cdebafg'
p1722
sV\u7269
S'cdebagf'
p1723
sV\u53e8
S'cdebfag'
p1724
sV\u5f29
S'cdebfga'
p1725
sV\u81f4
S'cdebgaf'
p1726
sV\u7ef6
S'aebdgfc'
p1727
sV\u7a79
S'cdefabg'
p1728
sV\u5bf8
S'cdefagb'
p1729
sV\u577b
S'cdefbag'
p1730
sV\u78fa
S'cdefbga'
p1731
sV\u738e
S'bfdaceg'
p1732
sV\u52fe
S'cdefgba'
p1733
sV\u9000
S'cdegabf'
p1734
sV\u7483
S'cdegafb'
p1735
sV\u808b
S'cdegbaf'
p1736
sV\u820c
S'cdegbfa'
p1737
sV\u50ac
S'cgaebdf'
p1738
sV\u8f95
S'cdegfba'
p1739
sV\u4e14
S'cdfabeg'
p1740
sV\u8fd1
S'dcbgeaf'
p1741
sV\u5f85
S'degfabc'
p1742
sV\u5b9d
S'cdfaebg'
p1743
sV\u5a1c
S'cdfaegb'
p1744
sV\u5e9f
S'cdfagbe'
p1745
sV\u6020
S'cdfageb'
p1746
sV\u8c28
S'cdfbaeg'
p1747
sV\u4f2a
S'cdfbage'
p1748
sV\u722c
S'cdfbeag'
p1749
sV\u952e
S'acbdgef'
p1750
sV\u7830
S'cdfbgae'
p1751
sV\u5cb3
S'cdfbgea'
p1752
sV\u65b9
S'cdfeagb'
p1753
sV\u673a
S'cdfebag'
p1754
sV\u4ebf
S'cdfebga'
p1755
sV\u6d3e
S'acebdfg'
p1756
sV\u94c3
S'cdfegba'
p1757
sV\u9644
S'cdfgabe'
p1758
sV\u5c48
S'cdfgaeb'
p1759
sV\u6850
S'cdfgbae'
p1760
sV\u4e54
S'cdfgbea'
p1761
sV\u72d7
S'cdfgeab'
p1762
sV\u5458
S'cdfgeba'
p1763
sV\u575a
S'cdgabef'
p1764
sV\u5bdd
S'cdgabfe'
p1765
sV\u7edf
S'cdgaebf'
p1766
sV\u6362
S'cdgaefb'
p1767
sV\u67e5
S'cdgafbe'
p1768
sV\u70eb
S'cdgafeb'
p1769
sV\u73ed
S'cdgbaef'
p1770
sV\u726c
S'cdgbafe'
p1771
sV\u76ef
S'cdgbeaf'
p1772
sV\u556e
S'cdgbefa'
p1773
sV\u5ff5
S'cdgbfae'
p1774
sV\u5e74
S'cdgbfea'
p1775
sV\u6478
S'cdgeabf'
p1776
sV\u8bfd
S'cdgeafb'
p1777
sV\u4eff
S'cdgebaf'
p1778
sV\u9080
S'adgbefc'
p1779
sV\u7403
S'adgcbfe'
p1780
sV\u5382
S'cdgefba'
p1781
sV\u7684
S'cdgfabe'
p1782
sV\u5a07
S'cdgfaeb'
p1783
sV\u5986
S'aebcdfg'
p1784
sV\u5f8a
S'aebdfgc'
p1785
sV\u628c
S'aebfdgc'
p1786
sV\u660f
S'cdgfeba'
p1787
sV\u4f6c
S'ceabdfg'
p1788
sV\u8c13
S'ceabdgf'
p1789
sV\u61c2
S'ceabfdg'
p1790
sV\u6f15
S'ceabfgd'
p1791
sV\u4e94
S'ceabgdf'
p1792
sV\u5217
S'ceabgfd'
p1793
sV\u5196
S'ceadbfg'
p1794
sV\u9519
S'ceadbgf'
p1795
sV\u786e
S'edbacgf'
p1796
sV\u7a9c
S'ceadfbg'
p1797
sV\u9e1f
S'ceadfgb'
p1798
sV\u60a0
S'aedgbcf'
p1799
sV\u63a2
S'ceadgfb'
p1800
sV\u8d29
S'ceafbdg'
p1801
sV\u5931
S'ceafdbg'
p1802
sV\u78b0
S'ceafdgb'
p1803
sV\u6237
S'ceafgbd'
p1804
sV\u6539
S'ceafgdb'
p1805
sV\u64b8
S'ceagbdf'
p1806
sV\u87ba
S'ceagbfd'
p1807
sV\u4ee5
S'dgbcafe'
p1808
sV\u8dbe
S'ceagdbf'
p1809
sV\u5141
S'ceagdfb'
p1810
sV\u53c2
S'ceagfbd'
p1811
sV\u7745
S'ceagfdb'
p1812
sV\u96c4
S'cebadfg'
p1813
sV\u59c6
S'cebadgf'
p1814
sV\u914d
S'cebafdg'
p1815
sV\u604b
S'cebafgd'
p1816
sV\u634d
S'cebagdf'
p1817
sV\u62cc
S'cebagfd'
p1818
sV\u664f
S'afdgbec'
p1819
sV\u6bd2
S'cebdagf'
p1820
sV\u4f55
S'cebdfag'
p1821
sV\u6ed4
S'afedcbg'
p1822
sV\u7559
S'cebdgaf'
p1823
sV\u5b5d
S'cebdgfa'
p1824
sV\u5dde
S'cebfadg'
p1825
sV\u60e0
S'cebfagd'
p1826
sV\u8463
S'cebfdag'
p1827
sV\u6765
S'cebfgad'
p1828
sV\u86e4
S'cebfgda'
p1829
sV\u89e6
S'cebgadf'
p1830
sV\u6d69
S'cebgafd'
p1831
sV\u6ce8
S'cebgdaf'
p1832
sV\u706b
S'cebgdfa'
p1833
sV\u8fea
S'cebgfad'
p1834
sV\u72ec
S'cebgfda'
p1835
sV\u95ee
S'cedabfg'
p1836
sV\u9971
S'cedabgf'
p1837
sV\u58f0
S'cedafbg'
p1838
sV\u7c73
S'cedafgb'
p1839
sV\u7ef4
S'cedagfb'
p1840
sV\u507e
S'cedbafg'
p1841
sV\u6e7f
S'cedbagf'
p1842
sV\u4f97
S'cedbfag'
p1843
sV\u5202
S'cedbfga'
p1844
sV\u9704
S'cedbgaf'
p1845
sV\u5b87
S'cedbgfa'
p1846
sV\u5806
S'cedfabg'
p1847
sV\u7c89
S'cedfagb'
p1848
sV\u828d
S'cedfbag'
p1849
sV\u8910
S'cedfbga'
p1850
sV\u6d93
S'cedfgab'
p1851
sV\u4e95
S'cedfgba'
p1852
sV\u6f14
S'cedgabf'
p1853
sV\u7397
S'cedgafb'
p1854
sV\u9499
S'cedgbaf'
p1855
sV\u7518
S'cedgbfa'
p1856
sV\u7a9d
S'cedgfab'
p1857
sV\u80a1
S'cefabdg'
p1858
sV\u8d28
S'cefabgd'
p1859
sV\u4e2a
S'baedcfg'
p1860
sV\u78b1
S'cefadgb'
p1861
sV\u5a32
S'cefagbd'
p1862
sV\u7eb5
S'cefagdb'
p1863
sV\u7f34
S'cefbadg'
p1864
sV\u63b7
S'bafgdce'
p1865
sV\u8036
S'cefbdag'
p1866
sV\u4fde
S'cefbdga'
p1867
sV\u7ef7
S'cefbgad'
p1868
sV\u4fbf
S'cefbgda'
p1869
sV\u7634
S'dacgbef'
p1870
sV\u90c1
S'cefdagb'
p1871
sV\u5140
S'afgcbde'
p1872
sV\u5242
S'cefdbga'
p1873
sV\u76c5
S'caefdbg'
p1874
sV\u7bc7
S'cefdgba'
p1875
sV\u4e0d
S'edbgacf'
p1876
sV\u82cd
S'bcdgaef'
p1877
sV\u67cf
S'cefgbad'
p1878
sV\u6dd3
S'cefgbda'
p1879
sV\u4ed5
S'cefgdab'
p1880
sV\u53d7
S'cefgdba'
p1881
sV\u7565
S'cegabdf'
p1882
sV\u5b5c
S'bcfdega'
p1883
sV\u7fdf
S'cegadbf'
p1884
sV\u5c5e
S'cegadfb'
p1885
sV\u80e1
S'cegafbd'
p1886
sV\u7f3a
S'cegafdb'
p1887
sV\u6ce9
S'cegbadf'
p1888
sV\u72ed
S'cegbafd'
p1889
sV\u57ef
S'cegbdaf'
p1890
sV\u7f69
S'acdbegf'
p1891
sV\u7ef5
S'cegbfad'
p1892
sV\u6076
S'cegdabf'
p1893
sV\u667a
S'cegdbaf'
p1894
sV\u838e
S'dcfabge'
p1895
sV\u6c7e
S'cegdfab'
p1896
sV\u9001
S'cegdfba'
p1897
sV\u5180
S'cegfabd'
p1898
sV\u9605
S'cegfadb'
p1899
sV\u7784
S'cegfbad'
p1900
sV\u9886
S'cegfbda'
p1901
sV\u5c09
S'cegfdab'
p1902
sV\u5e8a
S'cegfdba'
p1903
sV\u820d
S'cfabdeg'
p1904
sV\u638c
S'cfabdge'
p1905
sV\u6811
S'cfabedg'
p1906
sV\u4f94
S'cfabegd'
p1907
sV\u5317
S'cfabgde'
p1908
sV\u5598
S'cfabged'
p1909
sV\u5b9c
S'cfadbeg'
p1910
sV\u5f1f
S'cfadbge'
p1911
sV\u6021
S'cfadebg'
p1912
sV\u62a2
S'cfadegb'
p1913
sV\u6625
S'cfadgbe'
p1914
sV\u6b27
S'cfadgeb'
p1915
sV\u68a6
S'cfaebdg'
p1916
sV\u6da8
S'cfaebgd'
p1917
sV\u6eaa
S'cfaedgb'
p1918
sV\u772f
S'cfaegbd'
p1919
sV\u75c9
S'dfbaegc'
p1920
sV\u8bbc
S'cfagbde'
p1921
sV\u6cbe
S'cfagbed'
p1922
sV\u51c0
S'cfagdbe'
p1923
sV\u5543
S'cfagdeb'
p1924
sV\u72c2
S'cfagebd'
p1925
sV\u9645
S'cfagedb'
p1926
sV\u9b47
S'cfbadeg'
p1927
sV\u8bcd
S'dfbcage'
p1928
sV\u5eca
S'cfbaedg'
p1929
sV\u624d
S'cfbaegd'
p1930
sV\u83cc
S'cfbagde'
p1931
sV\u674f
S'cfbaged'
p1932
sV\u6851
S'cfbdaeg'
p1933
sV\u9e26
S'cfbdage'
p1934
sV\u6d53
S'cfbdeag'
p1935
sV\u6ea2
S'edbgfac'
p1936
sV\u8fd4
S'cfbdgae'
p1937
sV\u5357
S'cfbdgea'
p1938
sV\u50d6
S'cfbeadg'
p1939
sV\u75d8
S'cfbeagd'
p1940
sV\u56da
S'cfbedag'
p1941
sV\u4fe3
S'ebadgfc'
p1942
sV\u51d1
S'cfbedga'
p1943
sV\u6563
S'cfbegad'
p1944
sV\u62e2
S'cfbegda'
p1945
sV\u6b67
S'cfbgade'
p1946
sV\u8de8
S'cfbgdae'
p1947
sV\u516b
S'cfbgdea'
p1948
sV\u4eea
S'cfbgead'
p1949
sV\u53ec
S'cfbgeda'
p1950
sV\u94ee
S'cfdabeg'
p1951
sV\u79f0
S'cfdabge'
p1952
sV\u6377
S'bfegdca'
p1953
sV\u60f6
S'bfgadce'
p1954
sV\u4f7f
S'bfgdeca'
p1955
sV\u5200
S'cfdageb'
p1956
sV\u5404
S'cfdbage'
p1957
sV\u9887
S'cfdbeag'
p1958
sV\u7b06
S'cfdbega'
p1959
sV\u5e08
S'cfdbgae'
p1960
sV\u5956
S'dfbcgea'
p1961
sV\u800c
S'cfdeabg'
p1962
sV\u9750
S'cfdeagb'
p1963
sV\u8912
S'bgcfdea'
p1964
sV\u8c14
S'bgdaecf'
p1965
sV\u5316
S'cfdegab'
p1966
sV\u751a
S'cfdegba'
p1967
sV\u7c9f
S'cfdgabe'
p1968
sV\u6424
S'cfdgaeb'
p1969
sV\u68a7
S'cfdgbae'
p1970
sV\u8fa9
S'cfdgbea'
p1971
sV\u52ab
S'cfdgeab'
p1972
sV\u8d2a
S'bgfdace'
p1973
sV\u502c
S'cfeabdg'
p1974
sV\u94af
S'cfeabgd'
p1975
sV\u7bb1
S'cfeadbg'
p1976
sV\u6e89
S'cfeadgb'
p1977
sV\u7eb3
S'cfeagbd'
p1978
sV\u5932
S'cfeagdb'
p1979
sV\u80b7
S'cfebadg'
p1980
sV\u8336
S'cfebagd'
p1981
sV\u8638
S'cfebdag'
p1982
sV\u538b
S'bedcafg'
p1983
sV\u6cbf
S'cfebgda'
p1984
sV\u53c1
S'cfedabg'
p1985
sV\u55c5
S'caefgbd'
p1986
sV\u7a92
S'cfedbag'
p1987
sV\u804c
S'cfedbga'
p1988
sV\u674e
S'cfedgab'
p1989
sV\u8bd1
S'cfedgba'
p1990
sV\u6a50
S'cfegabd'
p1991
sV\u4ed3
S'cfegadb'
p1992
sV\u6c54
S'cfegbad'
p1993
sV\u5356
S'cfegbda'
p1994
sV\u960e
S'cfegdab'
p1995
sV\u953b
S'cfegdba'
p1996
sV\u7cdf
S'cfgabde'
p1997
sV\u63e1
S'cfgabed'
p1998
sV\u7a91
S'cfgadbe'
p1999
sV\u6162
S'cfgadeb'
p2000
sV\u65e5
S'cfgaebd'
p2001
sV\u8b66
S'cbdefag'
p2002
sV\u8fe9
S'cbdegaf'
p2003
sV\u6d6a
S'cfgbdae'
p2004
sV\u51ed
S'cfgbdea'
p2005
sV\u7bf1
S'cfgbead'
p2006
sV\u9a70
S'cfgbeda'
p2007
sV\u7ef3
S'cfgdabe'
p2008
sV\u9972
S'cfgdaeb'
p2009
sV\u6376
S'cfgdbae'
p2010
sV\u87f9
S'cfgdbea'
p2011
sV\u69fd
S'cfgdeba'
p2012
sV\u7603
S'cfgeadb'
p2013
sV\u9505
S'cfgebad'
p2014
sV\u5484
S'cfgebda'
p2015
sV\u7f09
S'cfgedab'
p2016
sV\u608c
S'cfgedba'
p2017
sV\u640f
S'cgabdef'
p2018
sV\u7275
S'edfbcga'
p2019
sV\u4e13
S'cgabedf'
p2020
sV\u9017
S'cgabefd'
p2021
sV\u7719
S'cgabfde'
p2022
sV\u759a
S'cgabfed'
p2023
sV\u789c
S'cdbeagf'
p2024
sV\u7f9e
S'cgadbfe'
p2025
sV\u6321
S'cgadebf'
p2026
sV\u62a0
S'cgadefb'
p2027
sV\u64a4
S'cgadfbe'
p2028
sV\u522b
S'cgadfeb'
p2029
sV\u70ac
S'cdegfab'
p2030
sV\u542f
S'cgaebfd'
p2031
sV\u59b2
S'cgaedbf'
p2032
sV\u6d9f
S'cgaedfb'
p2033
sV\u5586
S'cgaefdb'
p2034
sV\u6d4b
S'edcfbag'
p2035
sV\u8fbe
S'cgafdbe'
p2036
sV\u5341
S'cgafdeb'
p2037
sV\u92c0
S'cgafebd'
p2038
sV\u7545
S'cgafedb'
p2039
sV\u5bc6
S'cgbadef'
p2040
sV\u7ec8
S'cgbadfe'
p2041
sV\u624b
S'cgbaedf'
p2042
sV\u9976
S'cgbaefd'
p2043
sV\u80cc
S'cgbafde'
p2044
sV\u4e53
S'cgbafed'
p2045
sV\u89d2
S'cgbdaef'
p2046
sV\u6cd4
S'cgbdeaf'
p2047
sV\u9057
S'cgbdefa'
p2048
sV\u53d6
S'cgbdfae'
p2049
sV\u9759
S'cgbdfea'
p2050
sV\u76d8
S'cgbeadf'
p2051
sV\u795d
S'cgbeafd'
p2052
sV\u9524
S'cgbedaf'
p2053
sV\u6361
S'cefdbag'
p2054
sV\u6867
S'cgbefda'
p2055
sV\u8be6
S'cgbfade'
p2056
sV\u8f69
S'afdegbc'
p2057
sV\u6ee8
S'cgbfdae'
p2058
sV\u8dea
S'cgbfdea'
p2059
sV\u516d
S'cgbfead'
p2060
sV\u50ec
S'cgbfeda'
p2061
sV\u77ee
S'cgdabef'
p2062
sV\u5e73
S'cgdaebf'
p2063
sV\u65fa
S'cgdaefb'
p2064
sV\u63ab
S'cgdafbe'
p2065
sV\u4ffe
S'cgdafeb'
p2066
sV\u5300
S'cgdbaef'
p2067
sV\u9002
S'cgdbafe'
p2068
sV\u5987
S'cgdbeaf'
p2069
sV\u7a06
S'cgdbefa'
p2070
sV\u5c0a
S'cgdbfae'
p2071
sV\u608d
S'cgdbfea'
p2072
sV\u858f
S'cgdeabf'
p2073
sV\u660e
S'cgdeafb'
p2074
sV\u8f93
S'cgdebaf'
p2075
sV\u9699
S'cgabdfe'
p2076
sV\u5b9b
S'cgdefab'
p2077
sV\u741a
S'cgdefba'
p2078
sV\u989d
S'cgdfabe'
p2079
sV\u591c
S'cgdfaeb'
p2080
sV\u62a1
S'cgdfbae'
p2081
sV\u67a3
S'cgdfbea'
p2082
sV\u4ea9
S'cgdfeab'
p2083
sV\u73ab
S'cgdfeba'
p2084
sV\u70ad
S'cgeabdf'
p2085
sV\u75af
S'cgeabfd'
p2086
sV\u53ed
S'cgeadbf'
p2087
sV\u8236
S'cgeadfb'
p2088
sV\u86b9
S'cgeafbd'
p2089
sV\u4e3e
S'cgebadf'
p2090
sV\u8c61
S'edfabgc'
p2091
sV\u57c3
S'cgebdaf'
p2092
sV\u9042
S'cgebdfa'
p2093
sV\u94c5
S'cgebfad'
p2094
sV\u7a46
S'cgebfda'
p2095
sV\u5ec9
S'cgedabf'
p2096
sV\u5c4a
S'cfgbaed'
p2097
sV\u614c
S'cgedbaf'
p2098
sV\u65cf
S'cgedbfa'
p2099
sV\u864e
S'cgedfab'
p2100
sV\u5f62
S'ebfdgac'
p2101
sV\u6cd5
S'cgedfba'
p2102
sV\u8d54
S'cgefabd'
p2103
sV\u7738
S'cgefadb'
p2104
sV\u6062
S'cgefbad'
p2105
sV\u7686
S'egacdbf'
p2106
sV\u6a66
S'cgefbda'
p2107
sV\u4ee9
S'cgefdab'
p2108
sV\u8f68
S'cgefdba'
p2109
sV\u53eb
S'cgfabde'
p2110
sV\u8c6a
S'cgfabed'
p2111
sV\u90ed
S'bfdacge'
p2112
sV\u516c
S'cgfadeb'
p2113
sV\u95ef
S'cgfaebd'
p2114
sV\u6276
S'cgfaedb'
p2115
sV\u66f9
S'cgfbade'
p2116
sV\u8bfb
S'cgfbaed'
p2117
sV\u697c
S'cgfbdae'
p2118
sV\u6e7e
S'cgfbdea'
p2119
sV\u5201
S'cgfbead'
p2120
sV\u5703
S'cgfbeda'
p2121
sV\u7405
S'dbcfega'
p2122
sV\u5584
S'cgfdaeb'
p2123
sV\u5907
S'cgfdbae'
p2124
sV\u54e6
S'cgfdbea'
p2125
sV\u5f88
S'cgfdeab'
p2126
sV\u9996
S'dfcgbea'
p2127
sV\u600d
S'cgfeabd'
p2128
sV\u8892
S'cgfeadb'
p2129
sV\u832f
S'cgfebad'
p2130
sV\u7b1b
S'cgfebda'
p2131
sV\u5e9e
S'cgfedab'
p2132
sV\u63a0
S'cgfedba'
p2133
sV\u80a2
S'dabcefg'
p2134
sV\u8425
S'dabcegf'
p2135
sV\u65a4
S'dabcfeg'
p2136
sV\u6e29
S'dabcfge'
p2137
sV\u8fa8
S'dabcgef'
p2138
sV\u732b
S'dabcgfe'
p2139
sV\u5a46
S'dabecfg'
p2140
sV\u51ac
S'dabecgf'
p2141
sV\u552f
S'dabefcg'
p2142
sV\u76ae
S'dabefgc'
p2143
sV\u5a31
S'dabegcf'
p2144
sV\u5bb0
S'dabegfc'
p2145
sV\u961f
S'dfeabcg'
p2146
sV\u67b8
S'dcbgfea'
p2147
sV\u683d
S'dabfegc'
p2148
sV\u70c2
S'dabfgce'
p2149
sV\u5947
S'dabfgec'
p2150
sV\u6865
S'egcbafd'
p2151
sV\u7cca
S'dabgcfe'
p2152
sV\u604d
S'dabgecf'
p2153
sV\u654f
S'dabgefc'
p2154
sV\u8bd0
S'dabgfce'
p2155
sV\u4f53
S'dabgfec'
p2156
sV\u68d2
S'dacbefg'
p2157
sV\u85cf
S'dacbegf'
p2158
sV\u7b5b
S'dacbfeg'
p2159
sV\u785d
S'dacbfge'
p2160
sV\u59dc
S'dacbgef'
p2161
sV\u7ede
S'dacbgfe'
p2162
sV\u83e0
S'dacebfg'
p2163
sV\u85e4
S'dacebgf'
p2164
sV\u536b
S'dacefbg'
p2165
sV\u6cea
S'dacefgb'
p2166
sV\u706d
S'dacegbf'
p2167
sV\u76ee
S'dacegfb'
p2168
sV\u9a71
S'dacfbeg'
p2169
sV\u74e4
S'dacfbge'
p2170
sV\u5df4
S'dacfebg'
p2171
sV\u94a8
S'dacfegb'
p2172
sV\u8679
S'dacfgbe'
p2173
sV\u6b7b
S'dacfgeb'
p2174
sV\u5385
S'dacgbfe'
p2175
sV\u5e87
S'dacgebf'
p2176
sV\u5f80
S'egabdfc'
p2177
sV\u848b
S'dacgefb'
p2178
sV\u5256
S'dacgfbe'
p2179
sV\u878d
S'dacgfeb'
p2180
sV\u660c
S'daebcfg'
p2181
sV\u828f
S'daebcgf'
p2182
sV\u610e
S'daebfcg'
p2183
sV\u86d9
S'aebgcfd'
p2184
sV\u5199
S'daebgcf'
p2185
sV\u5018
S'daebgfc'
p2186
sV\u5c9b
S'daecbfg'
p2187
sV\u531a
S'daecbgf'
p2188
sV\u65a1
S'daecfbg'
p2189
sV\u60a3
S'daecfgb'
p2190
sV\u63a5
S'daecgbf'
p2191
sV\u4ea7
S'daecgfb'
p2192
sV\u8d26
S'daefbcg'
p2193
sV\u5706
S'edfcgba'
p2194
sV\u97ad
S'daefcbg'
p2195
sV\u72af
S'daefcgb'
p2196
sV\u912e
S'daefgbc'
p2197
sV\u6389
S'cagedfb'
p2198
sV\u78b3
S'daegbcf'
p2199
sV\u5bb5
S'daegbfc'
p2200
sV\u906d
S'decbfga'
p2201
sV\u6536
S'daegcbf'
p2202
sV\u8038
S'daegcfb'
p2203
sV\u6cbb
S'daegfbc'
p2204
sV\u633a
S'daegfcb'
p2205
sV\u8fbd
S'dafbceg'
p2206
sV\u5440
S'dafbcge'
p2207
sV\u70c3
S'dafbecg'
p2208
sV\u7ec7
S'dafbegc'
p2209
sV\u664c
S'dafbgce'
p2210
sV\u82cf
S'dafbgec'
p2211
sV\u614e
S'dafcbeg'
p2212
sV\u8dd1
S'dafcbge'
p2213
sV\u68d3
S'dafcebg'
p2214
sV\u8bd5
S'dafcegb'
p2215
sV\u76d7
S'dafcgbe'
p2216
sV\u5cb8
S'dafcgeb'
p2217
sV\u535a
S'dafebcg'
p2218
sV\u7adf
S'dafebgc'
p2219
sV\u795e
S'dafecbg'
p2220
sV\u504f
S'badcgef'
p2221
sV\u6d66
S'dafecgb'
p2222
sV\u8868
S'dafegbc'
p2223
sV\u94eb
S'dafegcb'
p2224
sV\u77ed
S'dafgbce'
p2225
sV\u716e
S'dafgbec'
p2226
sV\u5df1
S'dafgcbe'
p2227
sV\u6ee9
S'dafgceb'
p2228
sV\u58f3
S'dafgebc'
p2229
sV\u7f72
S'dafgecb'
p2230
sV\u6bbf
S'efgdcab'
p2231
sV\u963f
S'bdagcef'
p2232
sV\u66f7
S'dagbcfe'
p2233
sV\u6cfb
S'dagbecf'
p2234
sV\u8ffd
S'dagbefc'
p2235
sV\u8aff
S'dagbfce'
p2236
sV\u5014
S'dagbfec'
p2237
sV\u9501
S'dagcbef'
p2238
sV\u9003
S'dagcbfe'
p2239
sV\u6c6a
S'dagcebf'
p2240
sV\u5305
S'dagcefb'
p2241
sV\u7284
S'eagbdfc'
p2242
sV\u70ed
S'cgfadbe'
p2243
sV\u7f16
S'edgacbf'
p2244
sV\u670d
S'dagebcf'
p2245
sV\u620f
S'dagebfc'
p2246
sV\u916c
S'dagecbf'
p2247
sV\u6c90
S'dagecfb'
p2248
sV\u6813
S'dagefbc'
p2249
sV\u9119
S'dabfcge'
p2250
sV\u7098
S'dagfbce'
p2251
sV\u539a
S'dagfbec'
p2252
sV\u7f1d
S'dagfcbe'
p2253
sV\u5e9c
S'dagfceb'
p2254
sV\u5a1f
S'dagfebc'
p2255
sV\u9ec4
S'dfecbag'
p2256
sV\u8521
S'dbacefg'
p2257
sV\u6325
S'dbacegf'
p2258
sV\u82a4
S'dabgcef'
p2259
sV\u4e27
S'dbacfge'
p2260
sV\u6da6
S'dbacgef'
p2261
sV\u7080
S'dbacgfe'
p2262
sV\u68a8
S'ebfcgad'
p2263
sV\u542b
S'dbaecgf'
p2264
sV\u572d
S'dbaefcg'
p2265
sV\u60b8
S'dbaefgc'
p2266
sV\u63ba
S'dbaegcf'
p2267
sV\u6d74
S'dbaegfc'
p2268
sV\u54c0
S'dbafceg'
p2269
sV\u5bc7
S'dbafcge'
p2270
sV\u5949
S'dbafecg'
p2271
sV\u78c8
S'dbafegc'
p2272
sV\u6d51
S'dbafgce'
p2273
sV\u86f9
S'dbafgec'
p2274
sV\u6853
S'dbagcef'
p2275
sV\u7edc
S'dbagcfe'
p2276
sV\u6de6
S'dbagefc'
p2277
sV\u946b
S'dbagfce'
p2278
sV\u776d
S'dbagfec'
p2279
sV\u526f
S'dbcaefg'
p2280
sV\u73a9
S'cbadegf'
p2281
sV\u5b75
S'dbcafeg'
p2282
sV\u65f6
S'dbcafge'
p2283
sV\u8179
S'dbcagef'
p2284
sV\u80f8
S'dbcagfe'
p2285
sV\u8f7d
S'dbceafg'
p2286
sV\u8eab
S'dbceagf'
p2287
sV\u9500
S'dbcefag'
p2288
sV\u5f87
S'dbcefga'
p2289
sV\u5c06
S'dbcegaf'
p2290
sV\u658b
S'dbcegfa'
p2291
sV\u638f
S'dbcfaeg'
p2292
sV\u600e
S'dbcfage'
p2293
sV\u7099
S'dbcfeag'
p2294
sV\u521a
S'dbcfgae'
p2295
sV\u7f1c
S'dbcfgea'
p2296
sV\u62a5
S'dbcgafe'
p2297
sV\u6324
S'dbcgeaf'
p2298
sV\u4fa7
S'dbcgefa'
p2299
sV\u8c26
S'dbcgfae'
p2300
sV\u6a2a
S'dbcgfea'
p2301
sV\u73af
S'dbeacfg'
p2302
sV\u902e
S'dbeacgf'
p2303
sV\u5b34
S'dbeafcg'
p2304
sV\u4f88
S'cbfdgae'
p2305
sV\u8138
S'dbeagcf'
p2306
sV\u4f3c
S'dbeagfc'
p2307
sV\u8bbf
S'dbecafg'
p2308
sV\u94c1
S'aegdfbc'
p2309
sV\u9540
S'dbecfag'
p2310
sV\u71c3
S'dbecfga'
p2311
sV\u9642
S'dbecgaf'
p2312
sV\u5948
S'dbecgfa'
p2313
sV\u65cb
S'dbefacg'
p2314
sV\u5a4a
S'dbefagc'
p2315
sV\u63cf
S'dbefcag'
p2316
sV\u8d50
S'dbefcga'
p2317
sV\u4e52
S'acgbfed'
p2318
sV\u70d9
S'dbefgca'
p2319
sV\u768e
S'dbegacf'
p2320
sV\u7edd
S'dbegafc'
p2321
sV\u5bdf
S'dbegcaf'
p2322
sV\u585e
S'dbegcfa'
p2323
sV\u704f
S'dbegfac'
p2324
sV\u81e3
S'dbfaceg'
p2325
sV\u593a
S'dbfacge'
p2326
sV\u62e5
S'cbdeagf'
p2327
sV\u7267
S'dbfaegc'
p2328
sV\u59d1
S'dbfagce'
p2329
sV\u75bd
S'dbfagec'
p2330
sV\u56ed
S'dbfcaeg'
p2331
sV\u9f13
S'aecgbfd'
p2332
sV\u53ef
S'dbfceag'
p2333
sV\u506e
S'abegdcf'
p2334
sV\u5e72
S'dbfcgae'
p2335
sV\u60f9
S'dbfcgea'
p2336
sV\u6dfb
S'dbfeacg'
p2337
sV\u827a
S'dbfeagc'
p2338
sV\u4efd
S'dbfecag'
p2339
sV\u4f7c
S'abgdcef'
p2340
sV\u5580
S'abgedfc'
p2341
sV\u76db
S'efacbgd'
p2342
sV\u7384
S'dbfegca'
p2343
sV\u5988
S'dbfgace'
p2344
sV\u8c11
S'acdefgb'
p2345
sV\u4e92
S'dbfgcae'
p2346
sV\u5496
S'dbfgcea'
p2347
sV\u5019
S'dbfgeac'
p2348
sV\u9761
S'dbfgeca'
p2349
sV\u5e1d
S'dbgacef'
p2350
sV\u589e
S'dbgacfe'
p2351
sV\u6123
S'dbgaecf'
p2352
sV\u6829
S'acgdfeb'
p2353
sV\u752b
S'dbgafce'
p2354
sV\u77ac
S'dbgafec'
p2355
sV\u70ae
S'cdfeabg'
p2356
sV\u5c31
S'dbgcafe'
p2357
sV\u7eb2
S'dbgceaf'
p2358
sV\u5bb4
S'dbgcefa'
p2359
sV\u6d3b
S'dbgcfae'
p2360
sV\u8e3d
S'adcbgef'
p2361
sV\u6ecb
S'efabcgd'
p2362
sV\u76f4
S'dfgbcae'
p2363
sV\u5143
S'dbgecaf'
p2364
sV\u83a0
S'dbgecfa'
p2365
sV\u4fe9
S'cfgbade'
p2366
sV\u4e36
S'efdcbga'
p2367
sV\u634f
S'dbgefac'
p2368
sV\u50a2
S'dbgefca'
p2369
sV\u6bd4
S'dbgface'
p2370
sV\u5757
S'dbgfaec'
p2371
sV\u94d6
S'dbgfcae'
p2372
sV\u5b5f
S'dbgfcea'
p2373
sV\u98de
S'dbgfeac'
p2374
sV\u65e0
S'dbgfeca'
p2375
sV\u8f67
S'dcabefg'
p2376
sV\u77ec
S'dcabegf'
p2377
sV\u50ee
S'dcabfeg'
p2378
sV\u5c71
S'dcabfge'
p2379
sV\u8e29
S'dcabgef'
p2380
sV\u5973
S'dcabgfe'
p2381
sV\u4fa8
S'dcaebfg'
p2382
sV\u632b
S'dcaebgf'
p2383
sV\u6881
S'dcaefbg'
p2384
sV\u5185
S'dcaefgb'
p2385
sV\u785e
S'dbgaefc'
p2386
sV\u7f06
S'dcaegfb'
p2387
sV\u5b89
S'dcafbeg'
p2388
sV\u822a
S'ecgdafb'
p2389
sV\u840c
S'dcafbge'
p2390
sV\u830e
S'dcafebg'
p2391
sV\u8f91
S'dcafegb'
p2392
sV\u4e10
S'afbgcde'
p2393
sV\u8a93
S'dcafgeb'
p2394
sV\u90bb
S'cegabfd'
p2395
sV\u6995
S'dcagbfe'
p2396
sV\u9497
S'dcagebf'
p2397
sV\u4fea
S'dcagefb'
p2398
sV\u5218
S'dcagfbe'
p2399
sV\u711a
S'afcgedb'
p2400
sV\u5c1c
S'afdbgce'
p2401
sV\u789f
S'dcbaegf'
p2402
sV\u6620
S'dcbafeg'
p2403
sV\u6ca7
S'dcbafge'
p2404
sV\u4f26
S'dcbagef'
p2405
sV\u8ba9
S'dcbagfe'
p2406
sV\u892a
S'dcbeafg'
p2407
sV\u542c
S'dcbeagf'
p2408
sV\u70af
S'dcbefag'
p2409
sV\u532e
S'dbefgac'
p2410
sV\u5ab3
S'dcbegaf'
p2411
sV\u7834
S'dcbfaeg'
p2412
sV\u83b9
S'dcbfage'
p2413
sV\u586b
S'dfgaceb'
p2414
sV\u6b3e
S'dcbfeag'
p2415
sV\u5fe1
S'dcbfega'
p2416
sV\u52c3
S'dcbfgae'
p2417
sV\u86cb
S'dcbgaef'
p2418
sV\u634e
S'dcbgafe'
p2419
sV\u4fd1
S'agdcebf'
p2420
sV\u4e50
S'dcbgefa'
p2421
sV\u6854
S'dcbgfae'
p2422
sV\u53d9
S'dceabfg'
p2423
sV\u915a
S'agedcfb'
p2424
sV\u5ddd
S'dceafbg'
p2425
sV\u98df
S'dceafgb'
p2426
sV\u6562
S'dceagbf'
p2427
sV\u8f66
S'dceagfb'
p2428
sV\u8be9
S'dcebafg'
p2429
sV\u5766
S'dcebagf'
p2430
sV\u95ed
S'dcebfag'
p2431
sV\u70ef
S'dcebfga'
p2432
sV\u536e
S'bacegfd'
p2433
sV\u5ff1
S'bacfedg'
p2434
sV\u53e9
S'cbdeafg'
p2435
sV\u8212
S'dfgeacb'
p2436
sV\u8776
S'dcefbag'
p2437
sV\u4efb
S'dcefbga'
p2438
sV\u817a
S'dcefgab'
p2439
sV\u7701
S'dcegabf'
p2440
sV\u5203
S'dcegafb'
p2441
sV\u5582
S'baefgcd'
p2442
sV\u5b97
S'dfgecab'
p2443
sV\u7c07
S'dcegfab'
p2444
sV\u5b09
S'dcegfba'
p2445
sV\u848c
S'dcfabeg'
p2446
sV\u638e
S'bcdgafe'
p2447
sV\u4f11
S'dcfaebg'
p2448
sV\u6e90
S'dcfaegb'
p2449
sV\u5417
S'dcfbaeg'
p2450
sV\u6e2d
S'dcfbage'
p2451
sV\u9c9c
S'dcfbeag'
p2452
sV\u5b9e
S'dcfbega'
p2453
sV\u6721
S'dcfbgae'
p2454
sV\u6e1a
S'dcfbgea'
p2455
sV\u80a4
S'dcfeabg'
p2456
sV\u8c27
S'dcfeagb'
p2457
sV\u4fa6
S'dcfebag'
p2458
sV\u8b29
S'dcfebga'
p2459
sV\u762b
S'dcfegab'
p2460
sV\u94ac
S'bcegdfa'
p2461
sV\u53ae
S'dcfgabe'
p2462
sV\u5f31
S'dcfgaeb'
p2463
sV\u7a33
S'dcfgbae'
p2464
sV\u579f
S'dgabefc'
p2465
sV\u67b6
S'dcfgeab'
p2466
sV\u8339
S'bcgadef'
p2467
sV\u82b8
S'dcgabef'
p2468
sV\u4e3b
S'dcgabfe'
p2469
sV\u541e
S'dcgaebf'
p2470
sV\u6d3d
S'dcgaefb'
p2471
sV\u8bbe
S'dcgafbe'
p2472
sV\u7741
S'dcgafeb'
p2473
sV\u96c0
S'dcgbaef'
p2474
sV\u6cca
S'dcgbafe'
p2475
sV\u5145
S'bcgfeda'
p2476
sV\u5fc6
S'dcgbefa'
p2477
sV\u8237
S'cedgfba'
p2478
sV\u664b
S'dcgbfea'
p2479
sV\u4f76
S'efagbcd'
p2480
sV\u8da3
S'dgabfec'
p2481
sV\u51cc
S'dcgeafb'
p2482
sV\u4f51
S'dcgebaf'
p2483
sV\u88d4
S'dcgebfa'
p2484
sV\u82bd
S'dgafbce'
p2485
sV\u7cdc
S'dcgefab'
p2486
sV\u6761
S'dcgefba'
p2487
sV\u6263
S'dcgfabe'
p2488
sV\u797a
S'cbdfega'
p2489
sV\u8165
S'dcgfbae'
p2490
sV\u94ec
S'dcgfbea'
p2491
sV\u706f
S'dcgfeab'
p2492
sV\u53ee
S'dcgfeba'
p2493
sV\u5f71
S'deabcfg'
p2494
sV\u7ef0
S'deabcgf'
p2495
sV\u9a73
S'deabfcg'
p2496
sV\u5df2
S'deabfgc'
p2497
sV\u6cfc
S'deabgcf'
p2498
sV\u8bfe
S'deabgfc'
p2499
sV\u9700
S'deacbfg'
p2500
sV\u5085
S'deacbgf'
p2501
sV\u5e06
S'deacfbg'
p2502
sV\u678b
S'deacfgb'
p2503
sV\u818f
S'deacgbf'
p2504
sV\u620e
S'deacgfb'
p2505
sV\u4e91
S'deafbcg'
p2506
sV\u4f10
S'deafbgc'
p2507
sV\u8c12
S'deafcbg'
p2508
sV\u7597
S'deafcgb'
p2509
sV\u501a
S'begadfc'
p2510
sV\u80a5
S'deafgcb'
p2511
sV\u6124
S'deagbcf'
p2512
sV\u57ab
S'deagbfc'
p2513
sV\u682a
S'deagcbf'
p2514
sV\u51af
S'deagcfb'
p2515
sV\u522e
S'deagfbc'
p2516
sV\u7eb1
S'deagfcb'
p2517
sV\u5bb3
S'debacfg'
p2518
sV\u5934
S'debacgf'
p2519
sV\u82b9
S'bfdaegc'
p2520
sV\u8338
S'debafgc'
p2521
sV\u4ede
S'dcbfgea'
p2522
sV\u6cbd
S'debagfc'
p2523
sV\u6d3c
S'bfdcgae'
p2524
sV\u7740
S'cbagfed'
p2525
sV\u626e
S'bgdeafc'
p2526
sV\u5144
S'debcfga'
p2527
sV\u955c
S'efgbacd'
p2528
sV\u53e0
S'debcgaf'
p2529
sV\u654c
S'debcgfa'
p2530
sV\u624e
S'debfacg'
p2531
sV\u4ed1
S'bfgcdea'
p2532
sV\u88d5
S'debfcag'
p2533
sV\u72d9
S'debfcga'
p2534
sV\u505a
S'debfgac'
p2535
sV\u79df
S'debfgca'
p2536
sV\u63e3
S'debgacf'
p2537
sV\u8e66
S'bgcefda'
p2538
sV\u8377
S'cfdaebg'
p2539
sV\u94ed
S'bgdcaef'
p2540
sV\u51ef
S'debgfac'
p2541
sV\u5f70
S'debgfca'
p2542
sV\u9974
S'bgecadf'
p2543
sV\u6676
S'decabgf'
p2544
sV\u82f9
S'decafbg'
p2545
sV\u6cfd
S'decafgb'
p2546
sV\u9601
S'decagbf'
p2547
sV\u58c1
S'dgafbec'
p2548
sV\u50ed
S'decbafg'
p2549
sV\u5d07
S'decbagf'
p2550
sV\u5e86
S'decbfag'
p2551
sV\u5b88
S'cabfdge'
p2552
sV\u670b
S'decbgaf'
p2553
sV\u840d
S'decbgfa'
p2554
sV\u658c
S'decfabg'
p2555
sV\u810f
S'cadbfeg'
p2556
sV\u6e11
S'cadefgb'
p2557
sV\u8f90
S'decfbga'
p2558
sV\u6994
S'decfgab'
p2559
sV\u5219
S'decfgba'
p2560
sV\u5398
S'decgabf'
p2561
sV\u5f1b
S'decgafb'
p2562
sV\u5c1d
S'decgbaf'
p2563
sV\u591f
S'decgbfa'
p2564
sV\u6323
S'decgfab'
p2565
sV\u6025
S'decgfba'
p2566
sV\u8d27
S'defabcg'
p2567
sV\u4ea6
S'defabgc'
p2568
sV\u8eba
S'eabgdcf'
p2569
sV\u8ba8
S'defacbg'
p2570
sV\u542d
S'defacgb'
p2571
sV\u6ed5
S'defagbc'
p2572
sV\u5835
S'defagcb'
p2573
sV\u901f
S'efbcagd'
p2574
sV\u8537
S'defbagc'
p2575
sV\u8239
S'defbcga'
p2576
sV\u80ba
S'defbgac'
p2577
sV\u79cb
S'defbgca'
p2578
sV\u693f
S'defcabg'
p2579
sV\u8abe
S'defcagb'
p2580
sV\u5343
S'defcbag'
p2581
sV\u5045
S'defcbga'
p2582
sV\u51c4
S'defcgab'
p2583
sV\u5d47
S'defcgba'
p2584
sV\u7ec6
S'defgabc'
p2585
sV\u5a49
S'defgacb'
p2586
sV\u78ca
S'defgbac'
p2587
sV\u62ce
S'defgbca'
p2588
sV\u8e51
S'defgcab'
p2589
sV\u8fd0
S'defgcba'
p2590
sV\u76d6
S'degabcf'
p2591
sV\u7259
S'degabfc'
p2592
sV\u53d8
S'degacbf'
p2593
sV\u50da
S'degacfb'
p2594
sV\u8fa3
S'eagbfdc'
p2595
sV\u7ade
S'degafbc'
p2596
sV\u8363
S'degafcb'
p2597
sV\u54fa
S'degbacf'
p2598
sV\u6ee6
S'degbafc'
p2599
sV\u8be8
S'degbcaf'
p2600
sV\u72ee
S'degbcfa'
p2601
sV\u9875
S'degbfac'
p2602
sV\u6577
S'degbfca'
p2603
sV\u6279
S'degcabf'
p2604
sV\u8f7b
S'degcafb'
p2605
sV\u80fa
S'cdeagfb'
p2606
sV\u6c7d
S'degcbfa'
p2607
sV\u897f
S'degcfab'
p2608
sV\u9981
S'cdbfgae'
p2609
sV\u7f85
S'cdfabge'
p2610
sV\u5106
S'degfacb'
p2611
sV\u5408
S'degfbac'
p2612
sV\u888b
S'degfbca'
p2613
sV\u4e8f
S'degfcab'
p2614
sV\u8010
S'degfcba'
p2615
sV\u6795
S'dfabceg'
p2616
sV\u6614
S'dfabcge'
p2617
sV\u7a97
S'dfabecg'
p2618
sV\u5916
S'dfabegc'
p2619
sV\u5c18
S'dfabgce'
p2620
sV\u5e2d
S'edcafgb'
p2621
sV\u539d
S'dfabgec'
p2622
sV\u6b22
S'dfacbeg'
p2623
sV\u4fa5
S'dfacbge'
p2624
sV\u4e24
S'dfacebg'
p2625
sV\u62a7
S'dfacegb'
p2626
sV\u65a9
S'dfacgbe'
p2627
sV\u8428
S'dfacgeb'
p2628
sV\u672a
S'dfaebcg'
p2629
sV\u7bad
S'dfaebgc'
p2630
sV\u7eaf
S'dfaecbg'
p2631
sV\u679a
S'dfaecgb'
p2632
sV\u9634
S'cefdabg'
p2633
sV\u6c38
S'dfaegcb'
p2634
sV\u4f3a
S'dfagbce'
p2635
sV\u653e
S'dfagbec'
p2636
sV\u79c1
S'dfagcbe'
p2637
sV\u7840
S'dfagceb'
p2638
sV\u9cc3
S'dfagebc'
p2639
sV\u9b42
S'dfagecb'
p2640
sV\u7fc5
S'acfdegb'
p2641
sV\u52c7
S'dfbacge'
p2642
sV\u5146
S'dfbaecg'
p2643
sV\u55c9
S'cfaegdb'
p2644
sV\u5448
S'dfbagce'
p2645
sV\u68cb
S'dfbagec'
p2646
sV\u574a
S'bgdcefa'
p2647
sV\u6bcd
S'cfbadge'
p2648
sV\u6d4e
S'dfbceag'
p2649
sV\u6050
S'dfbcega'
p2650
sV\u8352
S'dfbcgae'
p2651
sV\u7956
S'cfdbgea'
p2652
sV\u6ee5
S'dfbeacg'
p2653
sV\u70db
S'dfbeagc'
p2654
sV\u7f5a
S'dfbecag'
p2655
sV\u76df
S'dfbecga'
p2656
sV\u7a74
S'eadfbcg'
p2657
sV\u6ce3
S'dfbegac'
p2658
sV\u6b62
S'dfbegca'
p2659
sV\u62e7
S'dfbgace'
p2660
sV\u8c10
S'daebfgc'
p2661
sV\u65e9
S'dfbgcae'
p2662
sV\u58eb
S'dfbgcea'
p2663
sV\u9a6c
S'dfbgeac'
p2664
sV\u7eef
S'dfbgeca'
p2665
sV\u7d6e
S'dfcabeg'
p2666
sV\u7070
S'dfcabge'
p2667
sV\u94f3
S'dfcaebg'
p2668
sV\u97f5
S'dfcaegb'
p2669
sV\u6df9
S'dfcagbe'
p2670
sV\u63fd
S'dfcageb'
p2671
sV\u627c
S'dfcbaeg'
p2672
sV\u66ff
S'dfcbage'
p2673
sV\u857e
S'dfcbeag'
p2674
sV\u7901
S'dfcbega'
p2675
sV\u9e3d
S'debagcf'
p2676
sV\u5e84
S'dfcbgae'
p2677
sV\u5207
S'dfcbgea'
p2678
sV\u9488
S'dfceabg'
p2679
sV\u680b
S'dfceagb'
p2680
sV\u9edf
S'dfcebag'
p2681
sV\u8e0f
S'dfcebga'
p2682
sV\u6d8e
S'dfcegab'
p2683
sV\u8111
S'dfcegba'
p2684
sV\u8c34
S'cedagbf'
p2685
sV\u6392
S'dfcgaeb'
p2686
sV\u6715
S'dfcgbae'
p2687
sV\u5996
S'cgfdeba'
p2688
sV\u7c98
S'dfcgeab'
p2689
sV\u531d
S'dfcgeba'
p2690
sV\u761f
S'dabfceg'
p2691
sV\u8ba2
S'dfeabgc'
p2692
sV\u4ea4
S'dfeacbg'
p2693
sV\u8170
S'dfeacgb'
p2694
sV\u67aa
S'dfeagbc'
p2695
sV\u7131
S'dfeagcb'
p2696
sV\u8349
S'dfebacg'
p2697
sV\u73b2
S'dfebagc'
p2698
sV\u8d39
S'dfebcag'
p2699
sV\u6cb8
S'dfebcga'
p2700
sV\u603b
S'dfebgac'
p2701
sV\u62bc
S'dfebgca'
p2702
sV\u5c43
S'dfecabg'
p2703
sV\u5bc2
S'dfecagb'
p2704
sV\u7ec4
S'dagfecb'
p2705
sV\u7247
S'dfecbga'
p2706
sV\u51c6
S'dfecgab'
p2707
sV\u54c8
S'dfecgba'
p2708
sV\u4e4f
S'dfegabc'
p2709
sV\u8151
S'dfegacb'
p2710
sV\u63d2
S'dfegbac'
p2711
sV\u905b
S'dfegbca'
p2712
sV\u68e0
S'dfegcab'
p2713
sV\u8be2
S'dfegcba'
p2714
sV\u7ea7
S'acdfbge'
p2715
sV\u6267
S'dfgabec'
p2716
sV\u61e6
S'dfgacbe'
p2717
sV\u786b
S'dbfecga'
p2718
sV\u5dee
S'dfgaebc'
p2719
sV\u5171
S'dfgaecb'
p2720
sV\u5473
S'dfgbace'
p2721
sV\u53f2
S'dfgbaec'
p2722
sV\u56f4
S'dbgeafc'
p2723
sV\u6155
S'efcadbg'
p2724
sV\u62fc
S'dfgbeac'
p2725
sV\u9881
S'dfgbeca'
p2726
sV\u5f04
S'dfgcabe'
p2727
sV\u7387
S'dfgcaeb'
p2728
sV\u9006
S'dfgcbae'
p2729
sV\u9489
S'dfgcbea'
p2730
sV\u9508
S'dfgceab'
p2731
sV\u960a
S'dfgceba'
p2732
sV\u8110
S'dfgeabc'
p2733
sV\u6212
S'dcefagb'
p2734
sV\u8695
S'dfgebac'
p2735
sV\u6714
S'dcefgba'
p2736
sV\u7b97
S'dcegbfa'
p2737
sV\u7816
S'dfgecba'
p2738
sV\u519b
S'dgabcef'
p2739
sV\u529d
S'dgabcfe'
p2740
sV\u731c
S'dgabecf'
p2741
sV\u779f
S'dcfgbea'
p2742
sV\u90ae
S'dbgcaef'
p2743
sV\u6da3
S'dcgeabf'
p2744
sV\u6ea5
S'dgacbef'
p2745
sV\u4f24
S'dgacbfe'
p2746
sV\u63a7
S'dgacebf'
p2747
sV\u8026
S'dgacefb'
p2748
sV\u64a9
S'dgacfbe'
p2749
sV\u7b2c
S'dgacfeb'
p2750
sV\u74dc
S'dgaebcf'
p2751
sV\u90b1
S'dgaebfc'
p2752
sV\u6bb7
S'dgaecbf'
p2753
sV\u6cb9
S'dgaecfb'
p2754
sV\u8d38
S'dgaefbc'
p2755
sV\u4e3a
S'dgaefcb'
p2756
sV\u62bd
S'debgcaf'
p2757
sV\u78c1
S'decagfb'
p2758
sV\u54c9
S'dgafcbe'
p2759
sV\u5272
S'dgbcfae'
p2760
sV\u6b4c
S'dgafceb'
p2761
sV\u4fcf
S'dgafebc'
p2762
sV\u60d1
S'dgafecb'
p2763
sV\u8150
S'dgbacef'
p2764
sV\u6252
S'dgbacfe'
p2765
sV\u4f0f
S'dgbfeac'
p2766
sV\u5965
S'cbfaged'
p2767
sV\u535c
S'dgbafce'
p2768
sV\u57df
S'dgbafec'
p2769
sV\u745e
S'dgbcaef'
p2770
sV\u51cf
S'bagcdfe'
p2771
sV\u5fbd
S'dgbceaf'
p2772
sV\u6413
S'dfcgabe'
p2773
sV\u5170
S'dgbcefa'
p2774
sV\u7272
S'dfbcaeg'
p2775
sV\u8bf7
S'dgbcfea'
p2776
sV\u6876
S'dgbeacf'
p2777
sV\u6d78
S'dgbeafc'
p2778
sV\u62fd
S'dgbecaf'
p2779
sV\u67ff
S'dgbecfa'
p2780
sV\u7801
S'dgbefac'
p2781
sV\u9980
S'dgbefca'
p2782
sV\u9a82
S'dgbface'
p2783
sV\u5e05
S'dgbfaec'
p2784
sV\u5f84
S'dgabfce'
p2785
sV\u5409
S'dgbfcea'
p2786
sV\u6f0f
S'dgbaecf'
p2787
sV\u8292
S'dgbfeca'
p2788
sV\u9896
S'dgcabfe'
p2789
sV\u521d
S'dgcaebf'
p2790
sV\u571f
S'dgcaefb'
p2791
sV\u6821
S'dgcafbe'
p2792
sV\u8d23
S'dgcafeb'
p2793
sV\u4e25
S'dgcbaef'
p2794
sV\u6ec7
S'dgcbafe'
p2795
sV\u60a6
S'dgcbeaf'
p2796
sV\u592b
S'dgcbefa'
p2797
sV\u6273
S'dgcbfae'
p2798
sV\u5f2f
S'dgcbfea'
p2799
sV\u7cae
S'dgceabf'
p2800
sV\u51b0
S'dgceafb'
p2801
sV\u7533
S'dgcebaf'
p2802
sV\u52b2
S'dgcebfa'
p2803
sV\u9635
S'dgcefab'
p2804
sV\u771f
S'dgcefba'
p2805
sV\u6db8
S'dgcfabe'
p2806
sV\u6eba
S'cfgeabd'
p2807
sV\u83bc
S'dgcfbae'
p2808
sV\u7821
S'ceafbgd'
p2809
sV\u5ac2
S'dgcfeab'
p2810
sV\u5e45
S'dgcfeba'
p2811
sV\u5347
S'dgeabcf'
p2812
sV\u8bd9
S'dgeabfc'
p2813
sV\u75c8
S'dgeacbf'
p2814
sV\u76ca
S'dgeacfb'
p2815
sV\u4f4f
S'dgeafbc'
p2816
sV\u62d2
S'dgeafcb'
p2817
sV\u6655
S'dgebacf'
p2818
sV\u67d4
S'dgebafc'
p2819
sV\u5b57
S'dgebcaf'
p2820
sV\u7eda
S'dgebfac'
p2821
sV\u575f
S'dgebfca'
p2822
sV\u8861
S'dgecabf'
p2823
sV\u6dd1
S'dgecafb'
p2824
sV\u8d63
S'dgecbaf'
p2825
sV\u627e
S'egabcfd'
p2826
sV\u6367
S'cafebdg'
p2827
sV\u6469
S'dgecfba'
p2828
sV\u65e8
S'dgefabc'
p2829
sV\u51f0
S'dgefacb'
p2830
sV\u7535
S'eadcbgf'
p2831
sV\u9675
S'dgefbac'
p2832
sV\u507f
S'cbfedga'
p2833
sV\u6c79
S'dgefcab'
p2834
sV\u6bd5
S'dgefcba'
p2835
sV\u677f
S'dgfabce'
p2836
sV\u5b81
S'dgfabec'
p2837
sV\u7a00
S'dgfacbe'
p2838
sV\u5c04
S'dgfaceb'
p2839
sV\u5306
S'dgfaebc'
p2840
sV\u5608
S'dgfaecb'
p2841
sV\u4f0e
S'dgfbace'
p2842
sV\u6210
S'dgfbaec'
p2843
sV\u8693
S'dgfbcae'
p2844
sV\u7897
S'afbgdce'
p2845
sV\u9f99
S'dgfbeca'
p2846
sV\u5e18
S'dgfcabe'
p2847
sV\u529b
S'dgfcaeb'
p2848
sV\u501c
S'dgfcbae'
p2849
sV\u949f
S'dgfcbea'
p2850
sV\u971e
S'dgfceab'
p2851
sV\u8ba1
S'dgfceba'
p2852
sV\u4fdd
S'dgfeabc'
p2853
sV\u782c
S'dgfeacb'
p2854
sV\u5230
S'dgfebac'
p2855
sV\u75b5
S'dgfebca'
p2856
sV\u7434
S'dgfecab'
p2857
sV\u8fb9
S'dgfecba'
p2858
sV\u6e38
S'eabcdfg'
p2859
sV\u62bb
S'eabcdgf'
p2860
sV\u8d3a
S'eabcfdg'
p2861
sV\u907f
S'dgefbca'
p2862
sV\u7ec3
S'eabcfgd'
p2863
sV\u9648
S'eabcgdf'
p2864
sV\u554a
S'eabcgfd'
p2865
sV\u884c
S'eabdcfg'
p2866
sV\u4f4e
S'eabdcgf'
p2867
sV\u50e1
S'eabdfcg'
p2868
sV\u7762
S'eabdfgc'
p2869
sV\u85d5
S'eabdgcf'
p2870
sV\u6454
S'eabdgfc'
p2871
sV\u7b56
S'eabfcdg'
p2872
sV\u5fd9
S'eabfcgd'
p2873
sV\u51dd
S'eabfdcg'
p2874
sV\u505c
S'eabfdgc'
p2875
sV\u54df
S'eabfgcd'
p2876
sV\u975e
S'eabfgdc'
p2877
sV\u6be1
S'eabgcdf'
p2878
sV\u4ee3
S'eabgcfd'
p2879
sV\u4eba
S'dgcfaeb'
p2880
sV\u6c64
S'eabgdfc'
p2881
sV\u80e7
S'agcfdeb'
p2882
sV\u6668
S'eabgfdc'
p2883
sV\u5aeb
S'eacbdfg'
p2884
sV\u786c
S'eacbdgf'
p2885
sV\u7cef
S'eacbfdg'
p2886
sV\u7f6e
S'eacbfgd'
p2887
sV\u96f3
S'eacbgdf'
p2888
sV\u7172
S'eacbgfd'
p2889
sV\u6868
S'eacdbfg'
p2890
sV\u8ff9
S'eacdbgf'
p2891
sV\u607c
S'eacdfgb'
p2892
sV\u677e
S'eacdgbf'
p2893
sV\u5e03
S'eacdgfb'
p2894
sV\u5982
S'eacfbdg'
p2895
sV\u79c0
S'dgcfbea'
p2896
sV\u5709
S'aedgcfb'
p2897
sV\u558a
S'eacfdgb'
p2898
sV\u690d
S'eacfgbd'
p2899
sV\u6c0f
S'eacfgdb'
p2900
sV\u6311
S'eacgbdf'
p2901
sV\u6613
S'eacgbfd'
p2902
sV\u521b
S'eacgdbf'
p2903
sV\u541f
S'eacgdfb'
p2904
sV\u6b21
S'eacgfbd'
p2905
sV\u6e23
S'eacgfdb'
p2906
sV\u8d25
S'eadbcfg'
p2907
sV\u6027
S'eadbcgf'
p2908
sV\u66a8
S'dbaecfg'
p2909
sV\u592d
S'eadbfgc'
p2910
sV\u5fae
S'eadbgcf'
p2911
sV\u9633
S'eadbgfc'
p2912
sV\u51b2
S'eadcbfg'
p2913
sV\u9535
S'abgdcfe'
p2914
sV\u6837
S'eadcfbg'
p2915
sV\u8bb6
S'eadcfgb'
p2916
sV\u865a
S'bcfagde'
p2917
sV\u8dba
S'eadcgbf'
p2918
sV\u613d
S'eadcgfb'
p2919
sV\u5a74
S'cegdafb'
p2920
sV\u86ca
S'dbcgaef'
p2921
sV\u5047
S'abegfcd'
p2922
sV\u9f20
S'eadfcgb'
p2923
sV\u76c8
S'eadfgbc'
p2924
sV\u8fce
S'eadfgcb'
p2925
sV\u62d0
S'eadgbcf'
p2926
sV\u6653
S'eadgbfc'
p2927
sV\u61d2
S'eadgcbf'
p2928
sV\u9ed8
S'acbdegf'
p2929
sV\u725b
S'eadgfbc'
p2930
sV\u745f
S'eadgfcb'
p2931
sV\u6f84
S'eafbcdg'
p2932
sV\u796d
S'caedfbg'
p2933
sV\u58ec
S'eafbdcg'
p2934
sV\u5c6f
S'eafbdgc'
p2935
sV\u5371
S'eafbgcd'
p2936
sV\u82d2
S'eafbgdc'
p2937
sV\u94f4
S'eafcbdg'
p2938
sV\u8877
S'eafcbgd'
p2939
sV\u8bf6
S'eafcdbg'
p2940
sV\u8dfa
S'eafcdgb'
p2941
sV\u7a81
S'eafcgbd'
p2942
sV\u7802
S'adbcegf'
p2943
sV\u9187
S'eafdbcg'
p2944
sV\u5206
S'adbegfc'
p2945
sV\u5708
S'eafdcbg'
p2946
sV\u6b8b
S'eafdcgb'
p2947
sV\u540a
S'eafdgbc'
p2948
sV\u4e0e
S'eafdgcb'
p2949
sV\u6291
S'eafgbcd'
p2950
sV\u6012
S'eafgbdc'
p2951
sV\u6495
S'eafgcbd'
p2952
sV\u9997
S'eafgcdb'
p2953
sV\u5e99
S'eafgdbc'
p2954
sV\u5f18
S'cfgdeab'
p2955
sV\u739b
S'eagbcdf'
p2956
sV\u5c1a
S'eagbcfd'
p2957
sV\u759f
S'eagbdcf'
p2958
sV\u561e
S'adefcgb'
p2959
sV\u6b20
S'eagbfcd'
p2960
sV\u4fa3
S'adfbcge'
p2961
sV\u8822
S'befgdac'
p2962
sV\u6ca5
S'eagcbfd'
p2963
sV\u8d24
S'eagcdbf'
p2964
sV\u5730
S'efdcabg'
p2965
sV\u6728
S'eagcdfb'
p2966
sV\u7bab
S'adgbcfe'
p2967
sV\u642a
S'eagcfdb'
p2968
sV\u5e2e
S'eagdbcf'
p2969
sV\u52b1
S'eagdbfc'
p2970
sV\u9e93
S'dbagecf'
p2971
sV\u69b7
S'eagdcfb'
p2972
sV\u9888
S'dagcfeb'
p2973
sV\u4f38
S'eagdfbc'
p2974
sV\u56ca
S'eadfbgc'
p2975
sV\u663e
S'eagdfcb'
p2976
sV\u5ac1
S'eagfbcd'
p2977
sV\u6861
S'eagfbdc'
p2978
sV\u5fc3
S'eagfcbd'
p2979
sV\u5842
S'eagfcdb'
p2980
sV\u91c7
S'eagfdbc'
p2981
sV\u9075
S'egcdafb'
p2982
sV\u544a
S'eagfdcb'
p2983
sV\u68cd
S'ebacdfg'
p2984
sV\u4e4e
S'ebacdgf'
p2985
sV\u62d1
S'cabgdfe'
p2986
sV\u6350
S'ebacfgd'
p2987
sV\u67d3
S'ebacgdf'
p2988
sV\u6052
S'ebacgfd'
p2989
sV\u7ed9
S'ebadcfg'
p2990
sV\u53db
S'ebadcgf'
p2991
sV\u618e
S'ebadfcg'
p2992
sV\u90dd
S'ebadfgc'
p2993
sV\u515c
S'ebadgcf'
p2994
sV\u9a74
S'dagbcef'
p2995
sV\u8f7f
S'cfdagbe'
p2996
sV\u6ce5
S'ebafcdg'
p2997
sV\u8367
S'dgecfab'
p2998
sV\u6266
S'ebafdcg'
p2999
sV\u6768
S'ebafdgc'
p3000
sV\u50e6
S'ebafgcd'
p3001
sV\u72f1
S'ebafgdc'
p3002
sV\u5370
S'ebagcdf'
p3003
sV\u77f3
S'afdbegc'
p3004
sV\u94f5
S'ebagdcf'
p3005
sV\u80fd
S'ebagdfc'
p3006
sV\u500c
S'ebagfcd'
p3007
sV\u867e
S'ebagfdc'
p3008
sV\u5a01
S'ebcadfg'
p3009
sV\u7b80
S'ebcadgf'
p3010
sV\u5f03
S'ebcafdg'
p3011
sV\u9882
S'ebcafgd'
p3012
sV\u5c05
S'ebcagdf'
p3013
sV\u5107
S'ebcagfd'
p3014
sV\u5609
S'ebcdafg'
p3015
sV\u5782
S'ebcdagf'
p3016
sV\u69c1
S'debcagf'
p3017
sV\u6211
S'ebcdfga'
p3018
sV\u7119
S'dagefcb'
p3019
sV\u8713
S'ebcdgfa'
p3020
sV\u5f98
S'ebcfagd'
p3021
sV\u731b
S'ebcfdag'
p3022
sV\u901d
S'ebcfdga'
p3023
sV\u6c1b
S'cfaedbg'
p3024
sV\u751f
S'ebcfgda'
p3025
sV\u569e
S'ebcgadf'
p3026
sV\u6a21
S'ebcgafd'
p3027
sV\u68a2
S'ebcgdaf'
p3028
sV\u8c25
S'ebcgdfa'
p3029
sV\u6da4
S'ebcgfad'
p3030
sV\u6127
S'ebcgfda'
p3031
sV\u82a6
S'ebdacfg'
p3032
sV\u9646
S'efdgacb'
p3033
sV\u7d2f
S'ebdacgf'
p3034
sV\u7231
S'ebdafcg'
p3035
sV\u73b0
S'ebdafgc'
p3036
sV\u50b2
S'ebdagcf'
p3037
sV\u5435
S'ebdagfc'
p3038
sV\u8e39
S'agfcebd'
p3039
sV\u653f
S'ebdcfag'
p3040
sV\u604a
S'ebdcfga'
p3041
sV\u5c45
S'ebdcgaf'
p3042
sV\u94a0
S'ebdcgfa'
p3043
sV\u7f18
S'eafgdcb'
p3044
sV\u69cc
S'ebdfacg'
p3045
sV\u8d4f
S'ebdfagc'
p3046
sV\u4ece
S'ebdfcag'
p3047
sV\u6251
S'ebdfcga'
p3048
sV\u63d0
S'ebdfgac'
p3049
sV\u5957
S'ebdfgca'
p3050
sV\u7ad6
S'ebdgacf'
p3051
sV\u5fd8
S'ebdgcaf'
p3052
sV\u755f
S'ebdgcfa'
p3053
sV\u62a4
S'dbacfeg'
p3054
sV\u6a61
S'ebdgfca'
p3055
sV\u8be0
S'ebfacdg'
p3056
sV\u4f63
S'ebfacgd'
p3057
sV\u6de4
S'bagecdf'
p3058
sV\u6167
S'ebfadgc'
p3059
sV\u82e6
S'bagfced'
p3060
sV\u59ec
S'ebfagdc'
p3061
sV\u53f0
S'ebfcadg'
p3062
sV\u9773
S'ebfcagd'
p3063
sV\u5475
S'ebfcdag'
p3064
sV\u95f4
S'ebfcdga'
p3065
sV\u8ff8
S'ebfcgda'
p3066
sV\u6cfa
S'ebfdacg'
p3067
sV\u81fc
S'ebfdagc'
p3068
sV\u86fe
S'cafdgeb'
p3069
sV\u5883
S'ebfdcga'
p3070
sV\u5f02
S'bcegfda'
p3071
sV\u5b85
S'ebfdgca'
p3072
sV\u5a04
S'ebfgacd'
p3073
sV\u7687
S'ebfgadc'
p3074
sV\u5189
S'bcfdgae'
p3075
sV\u4e56
S'ebfgcda'
p3076
sV\u4f8d
S'ebfgdac'
p3077
sV\u6e83
S'dcfagbe'
p3078
sV\u690e
S'ebgacdf'
p3079
sV\u6591
S'ebgacfd'
p3080
sV\u8214
S'ebgadcf'
p3081
sV\u5e97
S'ebgadfc'
p3082
sV\u5d16
S'ebgafcd'
p3083
sV\u9999
S'bcgfdae'
p3084
sV\u6d85
S'ebgcadf'
p3085
sV\u961c
S'ebgcafd'
p3086
sV\u529f
S'ebgcdaf'
p3087
sV\u711e
S'ebgcdfa'
p3088
sV\u6da1
S'ebgcfad'
p3089
sV\u8c20
S'ebgcfda'
p3090
sV\u4f22
S'bdceafg'
p3091
sV\u66a7
S'ebgdafc'
p3092
sV\u6028
S'ebgdcaf'
p3093
sV\u5cab
S'ebgdcfa'
p3094
sV\u632a
S'ebgdfac'
p3095
sV\u7fad
S'ebgdfca'
p3096
sV\u7178
S'cgfdabe'
p3097
sV\u592e
S'ebgfadc'
p3098
sV\u9732
S'ebgfcad'
p3099
sV\u6838
S'ebgfcda'
p3100
sV\u6b3a
S'ebgfdac'
p3101
sV\u663c
S'ebgfdca'
p3102
sV\u62bf
S'ecabdfg'
p3103
sV\u813e
S'ecabdgf'
p3104
sV\u5c40
S'ecabfdg'
p3105
sV\u96c7
S'ecabfgd'
p3106
sV\u5546
S'ecabgdf'
p3107
sV\u51c9
S'ecabgfd'
p3108
sV\u598d
S'cgafbed'
p3109
sV\u534a
S'ecadbgf'
p3110
sV\u4e4c
S'ecadfbg'
p3111
sV\u6254
S'ecadgbf'
p3112
sV\u6ff1
S'ebcfadg'
p3113
sV\u94db
S'ecafbdg'
p3114
sV\u7f20
S'ecafbgd'
p3115
sV\u7c3f
S'ecafdbg'
p3116
sV\u6de1
S'ecafdgb'
p3117
sV\u6c60
S'ecafgbd'
p3118
sV\u8be5
S'ecafgdb'
p3119
sV\u6566
S'ecagbdf'
p3120
sV\u6068
S'ecagbfd'
p3121
sV\u7aef
S'ecagdbf'
p3122
sV\u996e
S'ecagdfb'
p3123
sV\u7470
S'ecagfbd'
p3124
sV\u53f5
S'ecbadfg'
p3125
sV\u9274
S'ecbadgf'
p3126
sV\u4ef7
S'ecbafdg'
p3127
sV\u8d76
S'ecbafgd'
p3128
sV\u62cd
S'cefgadb'
p3129
sV\u62ff
S'ecbagdf'
p3130
sV\u817e
S'ecbagfd'
p3131
sV\u806a
S'efgcbad'
p3132
sV\u9a84
S'bfcdaeg'
p3133
sV\u7586
S'bgdcafe'
p3134
sV\u7109
S'ecbdfga'
p3135
sV\u8c0b
S'ecbdgaf'
p3136
sV\u4f0d
S'ecbdgfa'
p3137
sV\u4e8c
S'ecbfadg'
p3138
sV\u9898
S'ecbfagd'
p3139
sV\u541b
S'ecbfdag'
p3140
sV\u5b9a
S'ecbfdga'
p3141
sV\u6339
S'dcfgeba'
p3142
sV\u75ea
S'ecbfgda'
p3143
sV\u8d21
S'ecbgadf'
p3144
sV\u6627
S'ecbgafd'
p3145
sV\u60a8
S'ecbgdaf'
p3146
sV\u63aa
S'ecbgdfa'
p3147
sV\u7eac
S'ecbgfad'
p3148
sV\u59ae
S'ecbgfda'
p3149
sV\u5531
S'bgadfce'
p3150
sV\u7949
S'ecdabgf'
p3151
sV\u6939
S'ecdafbg'
p3152
sV\u9701
S'ecdafgb'
p3153
sV\u8bba
S'ecdagbf'
p3154
sV\u673d
S'ecdagfb'
p3155
sV\u623f
S'ecdbafg'
p3156
sV\u61be
S'ecdbagf'
p3157
sV\u5ba1
S'ecdbfag'
p3158
sV\u8bca
S'ecdbfga'
p3159
sV\u9b45
S'ecdbgaf'
p3160
sV\u9647
S'ecdbgfa'
p3161
sV\u9149
S'bgdfeac'
p3162
sV\u70c8
S'ecdfagb'
p3163
sV\u73ca
S'afdcbeg'
p3164
sV\u4f4d
S'ecdfbga'
p3165
sV\u6551
S'ecdfgba'
p3166
sV\u67d2
S'ecdgabf'
p3167
sV\u6355
S'ecdgafb'
p3168
sV\u82d4
S'bgfcdea'
p3169
sV\u98d8
S'ecdgbfa'
p3170
sV\u745b
S'ecdgfab'
p3171
sV\u575d
S'ecdgfba'
p3172
sV\u6f20
S'efdagbc'
p3173
sV\u725f
S'cgdabfe'
p3174
sV\u8d61
S'ecfabgd'
p3175
sV\u8863
S'cadbefg'
p3176
sV\u8fe2
S'ecfadgb'
p3177
sV\u6b65
S'ecfagbd'
p3178
sV\u65e6
S'ecfagdb'
p3179
sV\u9b54
S'egcfbad'
p3180
sV\u60e8
S'ecfbadg'
p3181
sV\u63ea
S'ecfbagd'
p3182
sV\u5f6d
S'ecfbdag'
p3183
sV\u5891
S'ecfbdga'
p3184
sV\u557c
S'ecfbgad'
p3185
sV\u5375
S'ecfbgda'
p3186
sV\u6628
S'ecfdabg'
p3187
sV\u8bfa
S'ecfdagb'
p3188
sV\u66fc
S'ecfdbag'
p3189
sV\u627f
S'ecfdbga'
p3190
sV\u54a9
S'ecfdgab'
p3191
sV\u9c81
S'aefbgcd'
p3192
sV\u5e02
S'ecfgabd'
p3193
sV\u7406
S'ecfgadb'
p3194
sV\u7089
S'ecfgbad'
p3195
sV\u8d8b
S'ecfgbda'
p3196
sV\u520a
S'ecfgdab'
p3197
sV\u6491
S'ecfgdba'
p3198
sV\u69d0
S'ecgabdf'
p3199
sV\u6295
S'ecgabfd'
p3200
sV\u5f97
S'ecgadbf'
p3201
sV\u5c16
S'ecgadfb'
p3202
sV\u5899
S'ecgafbd'
p3203
sV\u7a1a
S'ecgafdb'
p3204
sV\u771c
S'ecadfgb'
p3205
sV\u539f
S'ecgbafd'
p3206
sV\u901e
S'ecgbdaf'
p3207
sV\u6ca1
S'ecgbdfa'
p3208
sV\u77a0
S'ecgbfad'
p3209
sV\u8e22
S'cbfadeg'
p3210
sV\u80a9
S'ecgdabf'
p3211
sV\u622a
S'cbfegda'
p3212
sV\u5ead
S'ecgdbaf'
p3213
sV\u9f2c
S'ecgdbfa'
p3214
sV\u94b1
S'ecgdfab'
p3215
sV\u6d32
S'dcgbeaf'
p3216
sV\u51b3
S'ecgfabd'
p3217
sV\u5632
S'cbgdfea'
p3218
sV\u7334
S'ecgfbad'
p3219
sV\u55b5
S'ecgfbda'
p3220
sV\u5434
S'ecgfdab'
p3221
sV\u79c3
S'ecgfdba'
p3222
sV\u9ac5
S'edabcfg'
p3223
sV\u9b44
S'edabcgf'
p3224
sV\u5446
S'edabfcg'
p3225
sV\u5148
S'edabfgc'
p3226
sV\u8dcb
S'edabgcf'
p3227
sV\u524a
S'edabgfc'
p3228
sV\u4ecd
S'edacbfg'
p3229
sV\u6bcf
S'edacbgf'
p3230
sV\u84d1
S'edacfbg'
p3231
sV\u6652
S'edacfgb'
p3232
sV\u8354
S'edacgbf'
p3233
sV\u5fd7
S'edacgfb'
p3234
sV\u4e38
S'edafbcg'
p3235
sV\u75db
S'edafbgc'
p3236
sV\u5a5a
S'edafcbg'
p3237
sV\u53df
S'edafcgb'
p3238
sV\u6ce1
S'edafgbc'
p3239
sV\u8d60
S'edafgcb'
p3240
sV\u89e3
S'edagbcf'
p3241
sV\u6b64
S'edagbfc'
p3242
sV\u60e9
S'edagcbf'
p3243
sV\u5deb
S'edagcfb'
p3244
sV\u626a
S'edagfbc'
p3245
sV\u7eed
S'edagfcb'
p3246
sV\u5f6c
S'edbacfg'
p3247
sV\u903c
S'caebgfd'
p3248
sV\u94f1
S'edbafcg'
p3249
sV\u51f3
S'edbafgc'
p3250
sV\u5374
S'edbagcf'
p3251
sV\u8ff7
S'edbagfc'
p3252
sV\u78e8
S'afebdcg'
p3253
sV\u88f9
S'edbcafg'
p3254
sV\u6015
S'egadfcb'
p3255
sV\u85fb
S'edbcfag'
p3256
sV\u5c01
S'edbcfga'
p3257
sV\u8bc1
S'edbcgaf'
p3258
sV\u7e82
S'edbcgfa'
p3259
sV\u9707
S'edbfacg'
p3260
sV\u5486
S'edbfagc'
p3261
sV\u9009
S'edbfcag'
p3262
sV\u5188
S'edbfcga'
p3263
sV\u6d0b
S'edbfgac'
p3264
sV\u728a
S'cfebdga'
p3265
sV\u6e0d
S'cefgabd'
p3266
sV\u62d3
S'efabgcd'
p3267
sV\u826f
S'edbgafc'
p3268
sV\u5f17
S'edbgcaf'
p3269
sV\u5a9a
S'edbgcfa'
p3270
sV\u4ea2
S'cfbdega'
p3271
sV\u6c10
S'dfbgaec'
p3272
sV\u8ba4
S'edbgfca'
p3273
sV\u5cf0
S'dbcaegf'
p3274
sV\u81a8
S'edcabfg'
p3275
sV\u7d2b
S'edcabgf'
p3276
sV\u82aa
S'cfdbaeg'
p3277
sV\u9e2d
S'dcagfeb'
p3278
sV\u859c
S'edcagbf'
p3279
sV\u5431
S'edcagfb'
p3280
sV\u94dc
S'efcbadg'
p3281
sV\u6839
S'edcbafg'
p3282
sV\u653b
S'edcbagf'
p3283
sV\u5c41
S'edcbfga'
p3284
sV\u954a
S'edcbgaf'
p3285
sV\u5bc4
S'edcbgfa'
p3286
sV\u5747
S'edcfabg'
p3287
sV\u54c6
S'edcfagb'
p3288
sV\u8d4b
S'cgafbde'
p3289
sV\u5662
S'edcfbga'
p3290
sV\u6e4d
S'edcfgab'
p3291
sV\u684c
S'edcfgba'
p3292
sV\u7179
S'ebdcagf'
p3293
sV\u7f57
S'edcgafb'
p3294
sV\u7cd6
S'edcgbaf'
p3295
sV\u5634
S'dfaegbc'
p3296
sV\u79d8
S'edcgbfa'
p3297
sV\u535f
S'edcgfba'
p3298
sV\u90de
S'edfabcg'
p3299
sV\u6c61
S'cgebafd'
p3300
sV\u64e6
S'edfacbg'
p3301
sV\u6069
S'edfacgb'
p3302
sV\u58ee
S'edfagbc'
p3303
sV\u5471
S'edfagcb'
p3304
sV\u75f0
S'edfbacg'
p3305
sV\u5173
S'edfbagc'
p3306
sV\u76f2
S'edfbcag'
p3307
sV\u9275
S'dabfecg'
p3308
sV\u9a7f
S'edfbgac'
p3309
sV\u6cf6
S'edfbgca'
p3310
sV\u867d
S'edfcabg'
p3311
sV\u5f81
S'edfcagb'
p3312
sV\u5e00
S'edfcbag'
p3313
sV\u7a83
S'edfcbga'
p3314
sV\u90aa
S'cdbagfe'
p3315
sV\u9985
S'edfcgab'
p3316
sV\u7706
S'daefbgc'
p3317
sV\u7389
S'daefgcb'
p3318
sV\u5208
S'edfgacb'
p3319
sV\u4e8b
S'edfgbac'
p3320
sV\u710a
S'edfgbca'
p3321
sV\u8c0c
S'edfgcab'
p3322
sV\u6293
S'edfgcba'
p3323
sV\u6512
S'edgabcf'
p3324
sV\u5c97
S'dagcfbe'
p3325
sV\u6e58
S'baegcfd'
p3326
sV\u5b99
S'edgacfb'
p3327
sV\u5a18
S'edgafbc'
p3328
sV\u591a
S'edgafcb'
p3329
sV\u559d
S'edgbacf'
p3330
sV\u82db
S'edgbafc'
p3331
sV\u6fa1
S'edgbcaf'
p3332
sV\u6e20
S'edgbcfa'
p3333
sV\u8d22
S'edgbfac'
p3334
sV\u4e0b
S'efagdcb'
p3335
sV\u63a9
S'edgbfca'
p3336
sV\u7eab
S'edgcabf'
p3337
sV\u8d32
S'edgcafb'
p3338
sV\u52b3
S'edgcbaf'
p3339
sV\u7532
S'edgcbfa'
p3340
sV\u51b5
S'edgcfab'
p3341
sV\u4f36
S'edgcfba'
p3342
sV\u65bd
S'edgfabc'
p3343
sV\u80bf
S'edgfacb'
p3344
sV\u81b4
S'edgfbac'
p3345
sV\u7fc1
S'edgfbca'
p3346
sV\u6346
S'edcafbg'
p3347
sV\u54c7
S'edgfcab'
p3348
sV\u53c9
S'edgfcba'
p3349
sV\u7248
S'efabcdg'
p3350
sV\u4ecb
S'dbgeacf'
p3351
sV\u67d1
S'efabdcg'
p3352
sV\u8650
S'efabdgc'
p3353
sV\u82d3
S'dcfageb'
p3354
sV\u8054
S'efabgdc'
p3355
sV\u56db
S'dcbaefg'
p3356
sV\u545c
S'efacdbg'
p3357
sV\u70df
S'efacdgb'
p3358
sV\u535e
S'efacgbd'
p3359
sV\u4fe1
S'efacgdb'
p3360
sV\u4e60
S'efadbcg'
p3361
sV\u8d62
S'efadbgc'
p3362
sV\u70e7
S'bedgafc'
p3363
sV\u63e9
S'cabdgfe'
p3364
sV\u7eeb
S'efadgbc'
p3365
sV\u97e9
S'efadgcb'
p3366
sV\u5668
S'bedgfac'
p3367
sV\u8bf9
S'efagbdc'
p3368
sV\u5a03
S'efagcbd'
p3369
sV\u556a
S'cebfdga'
p3370
sV\u9884
S'efagdbc'
p3371
sV\u8e0b
S'cgeafdb'
p3372
sV\u718a
S'efbacdg'
p3373
sV\u6c8c
S'abefgcd'
p3374
sV\u680f
S'efbadcg'
p3375
sV\u9099
S'efbadgc'
p3376
sV\u6094
S'efbagcd'
p3377
sV\u561b
S'efbagdc'
p3378
sV\u8f6e
S'efbcadg'
p3379
sV\u501f
S'defbacg'
p3380
sV\u8427
S'efbcdag'
p3381
sV\u8270
S'efbcdga'
p3382
sV\u96c6
S'egbdfac'
p3383
sV\u5386
S'eacfbgd'
p3384
sV\u5233
S'efbdacg'
p3385
sV\u75b2
S'efbdagc'
p3386
sV\u8c37
S'efbdcag'
p3387
sV\u53c8
S'egbdfca'
p3388
sV\u663b
S'efbdcga'
p3389
sV\u64bc
S'efbdgac'
p3390
sV\u803f
S'efbdgca'
p3391
sV\u7a43
S'efbgacd'
p3392
sV\u90ca
S'egbfacd'
p3393
sV\u5349
S'efbgadc'
p3394
sV\u4e4b
S'efbgcad'
p3395
sV\u91ca
S'efbgcda'
p3396
sV\u6ccc
S'efbgdac'
p3397
sV\u8bce
S'efbgdca'
p3398
sV\u6751
S'efcabdg'
p3399
sV\u6253
S'efcabgd'
p3400
sV\u4e66
S'debgafc'
p3401
sV\u8155
S'dfgbcea'
p3402
sV\u9965
S'dgbaefc'
p3403
sV\u5b59
S'efcadgb'
p3404
sV\u9ad8
S'efcagbd'
p3405
sV\u59da
S'efcagdb'
p3406
sV\u54dc
S'cgbefad'
p3407
sV\u88e4
S'afcbedg'
p3408
sV\u5389
S'edfgabc'
p3409
sV\u67d0
S'egbfcda'
p3410
sV\u62e8
S'efcbdag'
p3411
sV\u81ea
S'efcbdga'
p3412
sV\u5d6d
S'efcbgad'
p3413
sV\u7bee
S'efcbgda'
p3414
sV\u56f0
S'efcdabg'
p3415
sV\u95f2
S'efcdagb'
p3416
sV\u6eb2
S'ebgfacd'
p3417
sV\u90f4
S'efcdbga'
p3418
sV\u5f00
S'efcdgab'
p3419
sV\u5b83
S'efcdgba'
p3420
sV\u916a
S'dcegbaf'
p3421
sV\u5904
S'efcgabd'
p3422
sV\u9606
S'efcgadb'
p3423
sV\u5308
S'efcgbad'
p3424
sV\u4f8b
S'efcgbda'
p3425
sV\u900a
S'efcgdab'
p3426
sV\u8bd8
S'cdbgfea'
p3427
sV\u9a97
S'efcgdba'
p3428
sV\u502e
S'efdabcg'
p3429
sV\u751c
S'efdabgc'
p3430
sV\u719f
S'efdacbg'
p3431
sV\u4ea1
S'efdacgb'
p3432
sV\u4f20
S'edcgfab'
p3433
sV\u8ba3
S'efdagcb'
p3434
sV\u8c22
S'efdbacg'
p3435
sV\u65a7
S'efdbagc'
p3436
sV\u6328
S'efdbcag'
p3437
sV\u802a
S'baedfgc'
p3438
sV\u5cad
S'efdbgac'
p3439
sV\u76b1
S'efdbgca'
p3440
sV\u9709
S'cbfaedg'
p3441
sV\u6e32
S'efdcagb'
p3442
sV\u90b5
S'efdcbag'
p3443
sV\u82d1
S'ebacfdg'
p3444
sV\u5c42
S'efdcgab'
p3445
sV\u5944
S'efdcgba'
p3446
sV\u75c7
S'efdgabc'
p3447
sV\u7fe0
S'dgecbfa'
p3448
sV\u52c9
S'efdgbac'
p3449
sV\u5348
S'efdgbca'
p3450
sV\u8d4c
S'efdgcab'
p3451
sV\u8a4e
S'efdgcba'
p3452
sV\u90b9
S'bdgfeca'
p3453
sV\u971c
S'ecgbadf'
p3454
sV\u8154
S'efgabdc'
p3455
sV\u7ad9
S'efgacbd'
p3456
sV\u5b58
S'efgacdb'
p3457
sV\u77db
S'efgadbc'
p3458
sV\u54dd
S'ebdgafc'
p3459
sV\u755c
S'bgefcad'
p3460
sV\u59e4
S'efgbadc'
p3461
sV\u6ee1
S'efgbcad'
p3462
sV\u4f60
S'efgbcda'
p3463
sV\u65e7
S'efgbdac'
p3464
sV\u62e9
S'efgbdca'
p3465
sV\u8368
S'efgcabd'
p3466
sV\u5feb
S'efgcadb'
p3467
sV\u606a
S'ecbdafg'
p3468
sV\u5ced
S'efgcbda'
p3469
sV\u79ef
S'efgcdab'
p3470
sV\u9a6e
S'efgcdba'
p3471
sV\u5269
S'efgdabc'
p3472
sV\u53f3
S'efgdacb'
p3473
sV\u9192
S'efgdbac'
p3474
sV\u50f5
S'efgdbca'
p3475
sV\u5174
S'defbcag'
p3476
sV\u6df7
S'efgdcba'
p3477
sV\u7cb8
S'egabcdf'
p3478
sV\u6912
S'cfdebag'
p3479
sV\u827e
S'abgcdef'
p3480
sV\u5e01
S'egabdcf'
p3481
sV\u54c1
S'dbecagf'
p3482
sV\u9b03
S'egabfcd'
p3483
sV\u5c82
S'egabfdc'
p3484
sV\u7984
S'egacbdf'
p3485
sV\u5507
S'egacbfd'
p3486
sV\u9686
S'cgbdafe'
p3487
sV\u5388
S'egacdfb'
p3488
sV\u708a
S'egacfbd'
p3489
sV\u8c0d
S'egacfdb'
p3490
sV\u6d8c
S'egadbcf'
p3491
sV\u54b1
S'egadbfc'
p3492
sV\u6611
S'egadcbf'
p3493
sV\u6790
S'egadcfb'
p3494
sV\u6492
S'egadfbc'
p3495
sV\u8015
S'edbcagf'
p3496
sV\u5b98
S'egafbcd'
p3497
sV\u541d
S'egafbdc'
p3498
sV\u559c
S'egafcbd'
p3499
sV\u529e
S'egafcdb'
p3500
sV\u6e21
S'egafdbc'
p3501
sV\u4fa0
S'egafdcb'
p3502
sV\u6b23
S'egbacdf'
p3503
sV\u4ee4
S'dfgabce'
p3504
sV\u63a8
S'egbacfd'
p3505
sV\u80aa
S'egbadcf'
p3506
sV\u592f
S'egbadfc'
p3507
sV\u5631
S'egbafcd'
p3508
sV\u91b4
S'egbafdc'
p3509
sV\u8d37
S'egbcadf'
p3510
sV\u7948
S'egbcafd'
p3511
sV\u8bb8
S'efacbdg'
p3512
sV\u843d
S'egbcdfa'
p3513
sV\u65bc
S'egbcfad'
p3514
sV\u613f
S'egbcfda'
p3515
sV\u7e41
S'egbdacf'
p3516
sV\u7845
S'egbdafc'
p3517
sV\u8d77
S'egcdbaf'
p3518
sV\u9547
S'egbdcfa'
p3519
sV\u76c6
S'efbcgad'
p3520
sV\u96cd
S'afgebdc'
p3521
sV\u5ef6
S'cdebgfa'
p3522
sV\u8dcc
S'egbfadc'
p3523
sV\u8651
S'egbfcad'
p3524
sV\u9a79
S'dgcabef'
p3525
sV\u64d2
S'egbfdac'
p3526
sV\u6055
S'egbfdca'
p3527
sV\u83cf
S'egcabdf'
p3528
sV\u5ed6
S'egcabfd'
p3529
sV\u6d25
S'egcadbf'
p3530
sV\u575b
S'agedbfc'
p3531
sV\u4e61
S'egcafbd'
p3532
sV\u6b63
S'egcafdb'
p3533
sV\u6ce2
S'egcbadf'
p3534
sV\u8865
S'dbegfca'
p3535
sV\u6269
S'egcbdaf'
p3536
sV\u547d
S'cdefgab'
p3537
sV\u73a6
S'egcbdfa'
p3538
sV\u796f
S'egcbfad'
p3539
sV\u5373
S'egcbfda'
p3540
sV\u54f2
S'egcdabf'
p3541
sV\u7075
S'egbcdaf'
p3542
sV\u602a
S'efdbcga'
p3543
sV\u6d77
S'egbdcaf'
p3544
sV\u86a8
S'eadbfcg'
p3545
sV\u8a79
S'egcdfab'
p3546
sV\u6f88
S'dbeafgc'
p3547
sV\u68fa
S'dcebgaf'
p3548
sV\u817f
S'egcfadb'
p3549
sV\u5b54
S'cdafbeg'
p3550
s.